     1 00000000                                 [FORMAT "WCOFF"]
     2 00000000                                 [INSTRSET "i486p"]
     3 00000000                                 [OPTIMIZE 1]
     4 00000000                                 [OPTION 1]
     5 00000000                                 [BITS 32]
     6 00000000                                 	EXTERN	_init_gdtidt
     7 00000000                                 	EXTERN	_init_pic
     8 00000000                                 	EXTERN	_io_sti
     9 00000000                                 	EXTERN	_fifo32_init
    10 00000000                                 	EXTERN	_init_pit
    11 00000000                                 	EXTERN	_init_keyboard
    12 00000000                                 	EXTERN	_enable_mouse
    13 00000000                                 	EXTERN	_io_out8
    14 00000000                                 	EXTERN	_memtest
    15 00000000                                 	EXTERN	_memman_init
    16 00000000                                 	EXTERN	_memman_free
    17 00000000                                 	EXTERN	_init_palette
    18 00000000                                 	EXTERN	_shtctl_init
    19 00000000                                 	EXTERN	_task_init
    20 00000000                                 	EXTERN	_task_run
    21 00000000                                 	EXTERN	_sheet_alloc
    22 00000000                                 	EXTERN	_memman_alloc_4k
    23 00000000                                 	EXTERN	_sheet_setbuf
    24 00000000                                 	EXTERN	_init_screen8
    25 00000000                                 	EXTERN	_make_window8
    26 00000000                                 	EXTERN	_make_textbox8
    27 00000000                                 	EXTERN	_task_alloc
    28 00000000                                 	EXTERN	_console_task
    29 00000000                                 	EXTERN	_timer_alloc
    30 00000000                                 	EXTERN	_timer_init
    31 00000000                                 	EXTERN	_timer_settime
    32 00000000                                 	EXTERN	_init_mouse_cursor8
    33 00000000                                 	EXTERN	_sheet_slide
    34 00000000                                 	EXTERN	_sheet_updown
    35 00000000                                 	EXTERN	_fifo32_put
    36 00000000                                 	EXTERN	_fifo32_status
    37 00000000                                 	EXTERN	_io_cli
    38 00000000                                 	EXTERN	_fifo32_get
    39 00000000                                 	EXTERN	_boxfill8
    40 00000000                                 	EXTERN	_sheet_refresh
    41 00000000                                 	EXTERN	_mouse_decode
    42 00000000                                 	EXTERN	_sprintf
    43 00000000                                 	EXTERN	_putfonts8_asc_sht
    44 00000000                                 	EXTERN	_keytable0.0
    45 00000000                                 	EXTERN	_wait_KBC_sendready
    46 00000000                                 	EXTERN	_cons_putstr0
    47 00000000                                 	EXTERN	_asm_end_app
    48 00000000                                 	EXTERN	_make_wtitle8
    49 00000000                                 	EXTERN	_keytable1.1
    50 00000000                                 	EXTERN	_task_sleep
    51 00000000                                 [FILE "bootpack.c"]
    52                                          [SECTION .data]
    53 00000000                                 _keytable0.0:
    54 00000000 00                              	DB	0
    55 00000001 00                              	DB	0
    56 00000002 31                              	DB	49
    57 00000003 32                              	DB	50
    58 00000004 33                              	DB	51
    59 00000005 34                              	DB	52
    60 00000006 35                              	DB	53
    61 00000007 36                              	DB	54
    62 00000008 37                              	DB	55
    63 00000009 38                              	DB	56
    64 0000000A 39                              	DB	57
    65 0000000B 30                              	DB	48
    66 0000000C 2D                              	DB	45
    67 0000000D 5E                              	DB	94
    68 0000000E 00                              	DB	0
    69 0000000F 00                              	DB	0
    70 00000010 51                              	DB	81
    71 00000011 57                              	DB	87
    72 00000012 45                              	DB	69
    73 00000013 52                              	DB	82
    74 00000014 54                              	DB	84
    75 00000015 59                              	DB	89
    76 00000016 55                              	DB	85
    77 00000017 49                              	DB	73
    78 00000018 4F                              	DB	79
    79 00000019 50                              	DB	80
    80 0000001A 40                              	DB	64
    81 0000001B 5B                              	DB	91
    82 0000001C 00                              	DB	0
    83 0000001D 00                              	DB	0
    84 0000001E 41                              	DB	65
    85 0000001F 53                              	DB	83
    86 00000020 44                              	DB	68
    87 00000021 46                              	DB	70
    88 00000022 47                              	DB	71
    89 00000023 48                              	DB	72
    90 00000024 4A                              	DB	74
    91 00000025 4B                              	DB	75
    92 00000026 4C                              	DB	76
    93 00000027 3B                              	DB	59
    94 00000028 3A                              	DB	58
    95 00000029 00                              	DB	0
    96 0000002A 00                              	DB	0
    97 0000002B 5D                              	DB	93
    98 0000002C 5A                              	DB	90
    99 0000002D 58                              	DB	88
   100 0000002E 43                              	DB	67
   101 0000002F 56                              	DB	86
   102 00000030 42                              	DB	66
   103 00000031 4E                              	DB	78
   104 00000032 4D                              	DB	77
   105 00000033 2C                              	DB	44
   106 00000034 2E                              	DB	46
   107 00000035 2F                              	DB	47
   108 00000036 00                              	DB	0
   109 00000037 2A                              	DB	42
   110 00000038 00                              	DB	0
   111 00000039 20                              	DB	32
   112 0000003A 00                              	DB	0
   113 0000003B 00                              	DB	0
   114 0000003C 00                              	DB	0
   115 0000003D 00                              	DB	0
   116 0000003E 00                              	DB	0
   117 0000003F 00                              	DB	0
   118 00000040 00                              	DB	0
   119 00000041 00                              	DB	0
   120 00000042 00                              	DB	0
   121 00000043 00                              	DB	0
   122 00000044 00                              	DB	0
   123 00000045 00                              	DB	0
   124 00000046 00                              	DB	0
   125 00000047 37                              	DB	55
   126 00000048 38                              	DB	56
   127 00000049 39                              	DB	57
   128 0000004A 2D                              	DB	45
   129 0000004B 34                              	DB	52
   130 0000004C 35                              	DB	53
   131 0000004D 36                              	DB	54
   132 0000004E 2B                              	DB	43
   133 0000004F 31                              	DB	49
   134 00000050 32                              	DB	50
   135 00000051 33                              	DB	51
   136 00000052 30                              	DB	48
   137 00000053 2E                              	DB	46
   138 00000054 00                              	DB	0
   139 00000055 00                              	DB	0
   140 00000056 00                              	DB	0
   141 00000057 00                              	DB	0
   142 00000058 00                              	DB	0
   143 00000059 00                              	DB	0
   144 0000005A 00                              	DB	0
   145 0000005B 00                              	DB	0
   146 0000005C 00                              	DB	0
   147 0000005D 00                              	DB	0
   148 0000005E 00                              	DB	0
   149 0000005F 00                              	DB	0
   150 00000060 00                              	DB	0
   151 00000061 00                              	DB	0
   152 00000062 00                              	DB	0
   153 00000063 00                              	DB	0
   154 00000064 00                              	DB	0
   155 00000065 00                              	DB	0
   156 00000066 00                              	DB	0
   157 00000067 00                              	DB	0
   158 00000068 00                              	DB	0
   159 00000069 00                              	DB	0
   160 0000006A 00                              	DB	0
   161 0000006B 00                              	DB	0
   162 0000006C 00                              	DB	0
   163 0000006D 00                              	DB	0
   164 0000006E 00                              	DB	0
   165 0000006F 00                              	DB	0
   166 00000070 00                              	DB	0
   167 00000071 00                              	DB	0
   168 00000072 00                              	DB	0
   169 00000073 5C                              	DB	92
   170 00000074 00                              	DB	0
   171 00000075 00                              	DB	0
   172 00000076 00                              	DB	0
   173 00000077 00                              	DB	0
   174 00000078 00                              	DB	0
   175 00000079 00                              	DB	0
   176 0000007A 00                              	DB	0
   177 0000007B 00                              	DB	0
   178 0000007C 00                              	DB	0
   179 0000007D 5C                              	DB	92
   180 0000007E 00                              	DB	0
   181 0000007F 00                              	DB	0
   182 00000080                                 _keytable1.1:
   183 00000080 00                              	DB	0
   184 00000081 00                              	DB	0
   185 00000082 21                              	DB	33
   186 00000083 22                              	DB	34
   187 00000084 23                              	DB	35
   188 00000085 24                              	DB	36
   189 00000086 25                              	DB	37
   190 00000087 26                              	DB	38
   191 00000088 27                              	DB	39
   192 00000089 28                              	DB	40
   193 0000008A 29                              	DB	41
   194 0000008B 7E                              	DB	126
   195 0000008C 3D                              	DB	61
   196 0000008D 7E                              	DB	126
   197 0000008E 00                              	DB	0
   198 0000008F 00                              	DB	0
   199 00000090 51                              	DB	81
   200 00000091 57                              	DB	87
   201 00000092 45                              	DB	69
   202 00000093 52                              	DB	82
   203 00000094 54                              	DB	84
   204 00000095 59                              	DB	89
   205 00000096 55                              	DB	85
   206 00000097 49                              	DB	73
   207 00000098 4F                              	DB	79
   208 00000099 50                              	DB	80
   209 0000009A 60                              	DB	96
   210 0000009B 7B                              	DB	123
   211 0000009C 00                              	DB	0
   212 0000009D 00                              	DB	0
   213 0000009E 41                              	DB	65
   214 0000009F 53                              	DB	83
   215 000000A0 44                              	DB	68
   216 000000A1 46                              	DB	70
   217 000000A2 47                              	DB	71
   218 000000A3 48                              	DB	72
   219 000000A4 4A                              	DB	74
   220 000000A5 4B                              	DB	75
   221 000000A6 4C                              	DB	76
   222 000000A7 2B                              	DB	43
   223 000000A8 2A                              	DB	42
   224 000000A9 00                              	DB	0
   225 000000AA 00                              	DB	0
   226 000000AB 7D                              	DB	125
   227 000000AC 5A                              	DB	90
   228 000000AD 58                              	DB	88
   229 000000AE 43                              	DB	67
   230 000000AF 56                              	DB	86
   231 000000B0 42                              	DB	66
   232 000000B1 4E                              	DB	78
   233 000000B2 4D                              	DB	77
   234 000000B3 3C                              	DB	60
   235 000000B4 3E                              	DB	62
   236 000000B5 3F                              	DB	63
   237 000000B6 00                              	DB	0
   238 000000B7 2A                              	DB	42
   239 000000B8 00                              	DB	0
   240 000000B9 20                              	DB	32
   241 000000BA 00                              	DB	0
   242 000000BB 00                              	DB	0
   243 000000BC 00                              	DB	0
   244 000000BD 00                              	DB	0
   245 000000BE 00                              	DB	0
   246 000000BF 00                              	DB	0
   247 000000C0 00                              	DB	0
   248 000000C1 00                              	DB	0
   249 000000C2 00                              	DB	0
   250 000000C3 00                              	DB	0
   251 000000C4 00                              	DB	0
   252 000000C5 00                              	DB	0
   253 000000C6 00                              	DB	0
   254 000000C7 37                              	DB	55
   255 000000C8 38                              	DB	56
   256 000000C9 39                              	DB	57
   257 000000CA 2D                              	DB	45
   258 000000CB 34                              	DB	52
   259 000000CC 35                              	DB	53
   260 000000CD 36                              	DB	54
   261 000000CE 2B                              	DB	43
   262 000000CF 31                              	DB	49
   263 000000D0 32                              	DB	50
   264 000000D1 33                              	DB	51
   265 000000D2 30                              	DB	48
   266 000000D3 2E                              	DB	46
   267 000000D4 00                              	DB	0
   268 000000D5 00                              	DB	0
   269 000000D6 00                              	DB	0
   270 000000D7 00                              	DB	0
   271 000000D8 00                              	DB	0
   272 000000D9 00                              	DB	0
   273 000000DA 00                              	DB	0
   274 000000DB 00                              	DB	0
   275 000000DC 00                              	DB	0
   276 000000DD 00                              	DB	0
   277 000000DE 00                              	DB	0
   278 000000DF 00                              	DB	0
   279 000000E0 00                              	DB	0
   280 000000E1 00                              	DB	0
   281 000000E2 00                              	DB	0
   282 000000E3 00                              	DB	0
   283 000000E4 00                              	DB	0
   284 000000E5 00                              	DB	0
   285 000000E6 00                              	DB	0
   286 000000E7 00                              	DB	0
   287 000000E8 00                              	DB	0
   288 000000E9 00                              	DB	0
   289 000000EA 00                              	DB	0
   290 000000EB 00                              	DB	0
   291 000000EC 00                              	DB	0
   292 000000ED 00                              	DB	0
   293 000000EE 00                              	DB	0
   294 000000EF 00                              	DB	0
   295 000000F0 00                              	DB	0
   296 000000F1 00                              	DB	0
   297 000000F2 00                              	DB	0
   298 000000F3 5F                              	DB	95
   299 000000F4 00                              	DB	0
   300 000000F5 00                              	DB	0
   301 000000F6 00                              	DB	0
   302 000000F7 00                              	DB	0
   303 000000F8 00                              	DB	0
   304 000000F9 00                              	DB	0
   305 000000FA 00                              	DB	0
   306 000000FB 00                              	DB	0
   307 000000FC 00                              	DB	0
   308 000000FD 7C                              	DB	124
   309 000000FE 00                              	DB	0
   310 000000FF 00                              	DB	0
   311 00000100                                 LC0:
   312 00000100 63 6F 6E 73 6F 6C 65 00         	DB	"console",0x00
   313 00000108                                 LC1:
   314 00000108 74 61 73 6B 5F 61 00            	DB	"task_a",0x00
   315 0000010F                                 LC2:
   316 0000010F 25 30 32 58 00                  	DB	"%02X",0x00
   317 00000114                                 LC4:
   318 00000114 0A 42 72 65 61 6B 28 6B 65 79   	DB	0x0A,"Break(key) :",0x0A,0x00
       0000011E 29 20 3A 0A 00 
   319 00000123                                 LC3:
   320 00000123 20 00                           	DB	" ",0x00
   321                                          [SECTION .text]
   322 00000000                                 	GLOBAL	_HariMain
   323 00000000                                 _HariMain:
   324 00000000 55                              	PUSH	EBP
   325 00000001 89 E5                           	MOV	EBP,ESP
   326 00000003 57                              	PUSH	EDI
   327 00000004 56                              	PUSH	ESI
   328 00000005 53                              	PUSH	EBX
   329 00000006 81 EC 0000044C                  	SUB	ESP,1100
   330 0000000C C7 85 FFFFFBB8 00000000         	MOV	DWORD [-1096+EBP],0
   331 00000016 C7 85 FFFFFBB4 00000000         	MOV	DWORD [-1100+EBP],0
   332 00000020 A0 00000FF1                     	MOV	AL,BYTE [4081]
   333 00000025 C0 F8 04                        	SAR	AL,4
   334 00000028 89 C2                           	MOV	EDX,EAX
   335 0000002A 83 E2 07                        	AND	EDX,7
   336 0000002D 89 95 FFFFFBB0                  	MOV	DWORD [-1104+EBP],EDX
   337 00000033 C7 85 FFFFFBAC FFFFFFFF         	MOV	DWORD [-1108+EBP],-1
   338 0000003D E8 [00000000]                   	CALL	_init_gdtidt
   339 00000042 E8 [00000000]                   	CALL	_init_pic
   340 00000047 E8 [00000000]                   	CALL	_io_sti
   341 0000004C 8D 85 FFFFFD84                  	LEA	EAX,DWORD [-636+EBP]
   342 00000052 6A 00                           	PUSH	0
   343 00000054 50                              	PUSH	EAX
   344 00000055 8D 45 A4                        	LEA	EAX,DWORD [-92+EBP]
   345 00000058 68 00000080                     	PUSH	128
   346 0000005D 50                              	PUSH	EAX
   347 0000005E E8 [00000000]                   	CALL	_fifo32_init
   348 00000063 E8 [00000000]                   	CALL	_init_pit
   349 00000068 8D 55 A4                        	LEA	EDX,DWORD [-92+EBP]
   350 0000006B 68 00000100                     	PUSH	256
   351 00000070 52                              	PUSH	EDX
   352 00000071 E8 [00000000]                   	CALL	_init_keyboard
   353 00000076 8D 85 FFFFFCF4                  	LEA	EAX,DWORD [-780+EBP]
   354 0000007C 50                              	PUSH	EAX
   355 0000007D 8D 45 A4                        	LEA	EAX,DWORD [-92+EBP]
   356 00000080 68 00000200                     	PUSH	512
   357 00000085 50                              	PUSH	EAX
   358 00000086 E8 [00000000]                   	CALL	_enable_mouse
   359 0000008B 83 C4 24                        	ADD	ESP,36
   360 0000008E 68 000000F8                     	PUSH	248
   361 00000093 6A 21                           	PUSH	33
   362 00000095 E8 [00000000]                   	CALL	_io_out8
   363 0000009A 68 000000EF                     	PUSH	239
   364 0000009F 68 000000A1                     	PUSH	161
   365 000000A4 E8 [00000000]                   	CALL	_io_out8
   366 000000A9 8D 55 84                        	LEA	EDX,DWORD [-124+EBP]
   367 000000AC 6A 00                           	PUSH	0
   368 000000AE 8D 85 FFFFFD04                  	LEA	EAX,DWORD [-764+EBP]
   369 000000B4 50                              	PUSH	EAX
   370 000000B5 6A 20                           	PUSH	32
   371 000000B7 52                              	PUSH	EDX
   372 000000B8 E8 [00000000]                   	CALL	_fifo32_init
   373 000000BD 83 C4 20                        	ADD	ESP,32
   374 000000C0 68 BFFFFFFF                     	PUSH	-1073741825
   375 000000C5 68 00400000                     	PUSH	4194304
   376 000000CA E8 [00000000]                   	CALL	_memtest
   377 000000CF 68 003C0000                     	PUSH	3932160
   378 000000D4 89 85 FFFFFBDC                  	MOV	DWORD [-1060+EBP],EAX
   379 000000DA E8 [00000000]                   	CALL	_memman_init
   380 000000DF 68 0009E000                     	PUSH	647168
   381 000000E4 68 00001000                     	PUSH	4096
   382 000000E9 68 003C0000                     	PUSH	3932160
   383 000000EE E8 [00000000]                   	CALL	_memman_free
   384 000000F3 8B 85 FFFFFBDC                  	MOV	EAX,DWORD [-1060+EBP]
   385 000000F9 2D 00400000                     	SUB	EAX,4194304
   386 000000FE 50                              	PUSH	EAX
   387 000000FF 68 00400000                     	PUSH	4194304
   388 00000104 68 003C0000                     	PUSH	3932160
   389 00000109 E8 [00000000]                   	CALL	_memman_free
   390 0000010E 83 C4 24                        	ADD	ESP,36
   391 00000111 E8 [00000000]                   	CALL	_init_palette
   392 00000116 0F BF 05 00000FF6               	MOVSX	EAX,WORD [4086]
   393 0000011D 50                              	PUSH	EAX
   394 0000011E 0F BF 05 00000FF4               	MOVSX	EAX,WORD [4084]
   395 00000125 50                              	PUSH	EAX
   396 00000126 FF 35 00000FF8                  	PUSH	DWORD [4088]
   397 0000012C 68 003C0000                     	PUSH	3932160
   398 00000131 E8 [00000000]                   	CALL	_shtctl_init
   399 00000136 68 003C0000                     	PUSH	3932160
   400 0000013B 89 C6                           	MOV	ESI,EAX
   401 0000013D E8 [00000000]                   	CALL	_task_init
   402 00000142 6A 02                           	PUSH	2
   403 00000144 6A 01                           	PUSH	1
   404 00000146 89 85 FFFFFBC4                  	MOV	DWORD [-1084+EBP],EAX
   405 0000014C 50                              	PUSH	EAX
   406 0000014D 89 45 BC                        	MOV	DWORD [-68+EBP],EAX
   407 00000150 E8 [00000000]                   	CALL	_task_run
   408 00000155 83 C4 20                        	ADD	ESP,32
   409 00000158 56                              	PUSH	ESI
   410 00000159 E8 [00000000]                   	CALL	_sheet_alloc
   411 0000015E 0F BF 15 00000FF6               	MOVSX	EDX,WORD [4086]
   412 00000165 89 85 FFFFFBD0                  	MOV	DWORD [-1072+EBP],EAX
   413 0000016B 0F BF 05 00000FF4               	MOVSX	EAX,WORD [4084]
   414 00000172 0F AF C2                        	IMUL	EAX,EDX
   415 00000175 50                              	PUSH	EAX
   416 00000176 68 003C0000                     	PUSH	3932160
   417 0000017B E8 [00000000]                   	CALL	_memman_alloc_4k
   418 00000180 6A FF                           	PUSH	-1
   419 00000182 89 C3                           	MOV	EBX,EAX
   420 00000184 0F BF 05 00000FF6               	MOVSX	EAX,WORD [4086]
   421 0000018B 50                              	PUSH	EAX
   422 0000018C 0F BF 05 00000FF4               	MOVSX	EAX,WORD [4084]
   423 00000193 50                              	PUSH	EAX
   424 00000194 53                              	PUSH	EBX
   425 00000195 FF B5 FFFFFBD0                  	PUSH	DWORD [-1072+EBP]
   426 0000019B E8 [00000000]                   	CALL	_sheet_setbuf
   427 000001A0 83 C4 20                        	ADD	ESP,32
   428 000001A3 0F BF 05 00000FF6               	MOVSX	EAX,WORD [4086]
   429 000001AA 50                              	PUSH	EAX
   430 000001AB 0F BF 05 00000FF4               	MOVSX	EAX,WORD [4084]
   431 000001B2 50                              	PUSH	EAX
   432 000001B3 53                              	PUSH	EBX
   433 000001B4 8D 9D FFFFFBF4                  	LEA	EBX,DWORD [-1036+EBP]
   434 000001BA E8 [00000000]                   	CALL	_init_screen8
   435 000001BF 56                              	PUSH	ESI
   436 000001C0 E8 [00000000]                   	CALL	_sheet_alloc
   437 000001C5 68 0000A500                     	PUSH	42240
   438 000001CA 68 003C0000                     	PUSH	3932160
   439 000001CF 89 85 FFFFFBC8                  	MOV	DWORD [-1080+EBP],EAX
   440 000001D5 E8 [00000000]                   	CALL	_memman_alloc_4k
   441 000001DA 6A FF                           	PUSH	-1
   442 000001DC 68 000000A5                     	PUSH	165
   443 000001E1 89 85 FFFFFBD4                  	MOV	DWORD [-1068+EBP],EAX
   444 000001E7 68 00000100                     	PUSH	256
   445 000001EC 50                              	PUSH	EAX
   446 000001ED FF B5 FFFFFBC8                  	PUSH	DWORD [-1080+EBP]
   447 000001F3 E8 [00000000]                   	CALL	_sheet_setbuf
   448 000001F8 83 C4 2C                        	ADD	ESP,44
   449 000001FB 6A 00                           	PUSH	0
   450 000001FD 68 [00000100]                   	PUSH	LC0
   451 00000202 68 000000A5                     	PUSH	165
   452 00000207 68 00000100                     	PUSH	256
   453 0000020C FF B5 FFFFFBD4                  	PUSH	DWORD [-1068+EBP]
   454 00000212 E8 [00000000]                   	CALL	_make_window8
   455 00000217 6A 00                           	PUSH	0
   456 00000219 68 00000080                     	PUSH	128
   457 0000021E 68 000000F0                     	PUSH	240
   458 00000223 6A 1C                           	PUSH	28
   459 00000225 6A 08                           	PUSH	8
   460 00000227 FF B5 FFFFFBC8                  	PUSH	DWORD [-1080+EBP]
   461 0000022D E8 [00000000]                   	CALL	_make_textbox8
   462 00000232 83 C4 2C                        	ADD	ESP,44
   463 00000235 E8 [00000000]                   	CALL	_task_alloc
   464 0000023A 68 00010000                     	PUSH	65536
   465 0000023F 68 003C0000                     	PUSH	3932160
   466 00000244 89 85 FFFFFBC0                  	MOV	DWORD [-1088+EBP],EAX
   467 0000024A E8 [00000000]                   	CALL	_memman_alloc_4k
   468 0000024F 8B 95 FFFFFBC0                  	MOV	EDX,DWORD [-1088+EBP]
   469 00000255 05 0000FFF4                     	ADD	EAX,65524
   470 0000025A 89 42 64                        	MOV	DWORD [100+EDX],EAX
   471 0000025D C7 42 4C [00000000]             	MOV	DWORD [76+EDX],_console_task
   472 00000264 C7 42 74 00000008               	MOV	DWORD [116+EDX],8
   473 0000026B C7 42 78 00000010               	MOV	DWORD [120+EDX],16
   474 00000272 C7 42 7C 00000008               	MOV	DWORD [124+EDX],8
   475 00000279 C7 82 00000080 00000008         	MOV	DWORD [128+EDX],8
   476 00000283 C7 82 00000084 00000008         	MOV	DWORD [132+EDX],8
   477 0000028D C7 82 00000088 00000008         	MOV	DWORD [136+EDX],8
   478 00000297 8B 95 FFFFFBC8                  	MOV	EDX,DWORD [-1080+EBP]
   479 0000029D 89 50 04                        	MOV	DWORD [4+EAX],EDX
   480 000002A0 8B 95 FFFFFBC0                  	MOV	EDX,DWORD [-1088+EBP]
   481 000002A6 8B 42 64                        	MOV	EAX,DWORD [100+EDX]
   482 000002A9 8B 95 FFFFFBDC                  	MOV	EDX,DWORD [-1060+EBP]
   483 000002AF 89 50 08                        	MOV	DWORD [8+EAX],EDX
   484 000002B2 6A 02                           	PUSH	2
   485 000002B4 6A 02                           	PUSH	2
   486 000002B6 FF B5 FFFFFBC0                  	PUSH	DWORD [-1088+EBP]
   487 000002BC E8 [00000000]                   	CALL	_task_run
   488 000002C1 56                              	PUSH	ESI
   489 000002C2 E8 [00000000]                   	CALL	_sheet_alloc
   490 000002C7 68 00002080                     	PUSH	8320
   491 000002CC 68 003C0000                     	PUSH	3932160
   492 000002D1 89 C7                           	MOV	EDI,EAX
   493 000002D3 E8 [00000000]                   	CALL	_memman_alloc_4k
   494 000002D8 83 C4 20                        	ADD	ESP,32
   495 000002DB 6A FF                           	PUSH	-1
   496 000002DD 89 85 FFFFFBD8                  	MOV	DWORD [-1064+EBP],EAX
   497 000002E3 6A 34                           	PUSH	52
   498 000002E5 68 00000090                     	PUSH	144
   499 000002EA 50                              	PUSH	EAX
   500 000002EB 57                              	PUSH	EDI
   501 000002EC E8 [00000000]                   	CALL	_sheet_setbuf
   502 000002F1 6A 01                           	PUSH	1
   503 000002F3 68 [00000108]                   	PUSH	LC1
   504 000002F8 6A 34                           	PUSH	52
   505 000002FA 68 00000090                     	PUSH	144
   506 000002FF FF B5 FFFFFBD8                  	PUSH	DWORD [-1064+EBP]
   507 00000305 E8 [00000000]                   	CALL	_make_window8
   508 0000030A 83 C4 28                        	ADD	ESP,40
   509 0000030D 6A 07                           	PUSH	7
   510 0000030F 6A 10                           	PUSH	16
   511 00000311 68 00000080                     	PUSH	128
   512 00000316 6A 1C                           	PUSH	28
   513 00000318 6A 08                           	PUSH	8
   514 0000031A 57                              	PUSH	EDI
   515 0000031B E8 [00000000]                   	CALL	_make_textbox8
   516 00000320 C7 85 FFFFFBE4 00000008         	MOV	DWORD [-1052+EBP],8
   517 0000032A C7 85 FFFFFBE0 00000007         	MOV	DWORD [-1056+EBP],7
   518 00000334 E8 [00000000]                   	CALL	_timer_alloc
   519 00000339 6A 01                           	PUSH	1
   520 0000033B 89 85 FFFFFBBC                  	MOV	DWORD [-1092+EBP],EAX
   521 00000341 8D 45 A4                        	LEA	EAX,DWORD [-92+EBP]
   522 00000344 50                              	PUSH	EAX
   523 00000345 FF B5 FFFFFBBC                  	PUSH	DWORD [-1092+EBP]
   524 0000034B E8 [00000000]                   	CALL	_timer_init
   525 00000350 83 C4 24                        	ADD	ESP,36
   526 00000353 6A 32                           	PUSH	50
   527 00000355 FF B5 FFFFFBBC                  	PUSH	DWORD [-1092+EBP]
   528 0000035B E8 [00000000]                   	CALL	_timer_settime
   529 00000360 56                              	PUSH	ESI
   530 00000361 E8 [00000000]                   	CALL	_sheet_alloc
   531 00000366 6A 63                           	PUSH	99
   532 00000368 6A 10                           	PUSH	16
   533 0000036A 6A 10                           	PUSH	16
   534 0000036C 89 85 FFFFFBCC                  	MOV	DWORD [-1076+EBP],EAX
   535 00000372 53                              	PUSH	EBX
   536 00000373 50                              	PUSH	EAX
   537 00000374 E8 [00000000]                   	CALL	_sheet_setbuf
   538 00000379 83 C4 20                        	ADD	ESP,32
   539 0000037C 6A 63                           	PUSH	99
   540 0000037E 53                              	PUSH	EBX
   541 0000037F BB 00000002                     	MOV	EBX,2
   542 00000384 E8 [00000000]                   	CALL	_init_mouse_cursor8
   543 00000389 0F BF 05 00000FF4               	MOVSX	EAX,WORD [4084]
   544 00000390 8D 48 F0                        	LEA	ECX,DWORD [-16+EAX]
   545 00000393 89 C8                           	MOV	EAX,ECX
   546 00000395 99                              	CDQ
   547 00000396 F7 FB                           	IDIV	EBX
   548 00000398 89 85 FFFFFBEC                  	MOV	DWORD [-1044+EBP],EAX
   549 0000039E 0F BF 05 00000FF6               	MOVSX	EAX,WORD [4086]
   550 000003A5 6A 00                           	PUSH	0
   551 000003A7 8D 48 D4                        	LEA	ECX,DWORD [-44+EAX]
   552 000003AA 6A 00                           	PUSH	0
   553 000003AC 89 C8                           	MOV	EAX,ECX
   554 000003AE 99                              	CDQ
   555 000003AF F7 FB                           	IDIV	EBX
   556 000003B1 FF B5 FFFFFBD0                  	PUSH	DWORD [-1072+EBP]
   557 000003B7 89 85 FFFFFBE8                  	MOV	DWORD [-1048+EBP],EAX
   558 000003BD E8 [00000000]                   	CALL	_sheet_slide
   559 000003C2 6A 04                           	PUSH	4
   560 000003C4 6A 20                           	PUSH	32
   561 000003C6 FF B5 FFFFFBC8                  	PUSH	DWORD [-1080+EBP]
   562 000003CC E8 [00000000]                   	CALL	_sheet_slide
   563 000003D1 83 C4 20                        	ADD	ESP,32
   564 000003D4 6A 38                           	PUSH	56
   565 000003D6 6A 40                           	PUSH	64
   566 000003D8 57                              	PUSH	EDI
   567 000003D9 E8 [00000000]                   	CALL	_sheet_slide
   568 000003DE FF B5 FFFFFBE8                  	PUSH	DWORD [-1048+EBP]
   569 000003E4 FF B5 FFFFFBEC                  	PUSH	DWORD [-1044+EBP]
   570 000003EA FF B5 FFFFFBCC                  	PUSH	DWORD [-1076+EBP]
   571 000003F0 E8 [00000000]                   	CALL	_sheet_slide
   572 000003F5 6A 00                           	PUSH	0
   573 000003F7 FF B5 FFFFFBD0                  	PUSH	DWORD [-1072+EBP]
   574 000003FD E8 [00000000]                   	CALL	_sheet_updown
   575 00000402 83 C4 20                        	ADD	ESP,32
   576 00000405 6A 01                           	PUSH	1
   577 00000407 FF B5 FFFFFBC8                  	PUSH	DWORD [-1080+EBP]
   578 0000040D E8 [00000000]                   	CALL	_sheet_updown
   579 00000412 6A 02                           	PUSH	2
   580 00000414 57                              	PUSH	EDI
   581 00000415 E8 [00000000]                   	CALL	_sheet_updown
   582 0000041A 6A 03                           	PUSH	3
   583 0000041C FF B5 FFFFFBCC                  	PUSH	DWORD [-1076+EBP]
   584 00000422 E8 [00000000]                   	CALL	_sheet_updown
   585 00000427 8D 55 84                        	LEA	EDX,DWORD [-124+EBP]
   586 0000042A 68 000000ED                     	PUSH	237
   587 0000042F 52                              	PUSH	EDX
   588 00000430 E8 [00000000]                   	CALL	_fifo32_put
   589 00000435 8D 45 84                        	LEA	EAX,DWORD [-124+EBP]
   590 00000438 83 C4 20                        	ADD	ESP,32
   591 0000043B FF B5 FFFFFBB0                  	PUSH	DWORD [-1104+EBP]
   592 00000441 50                              	PUSH	EAX
   593 00000442 E8 [00000000]                   	CALL	_fifo32_put
   594 00000447 59                              	POP	ECX
   595 00000448 5B                              	POP	EBX
   596 00000449                                 L2:
   597 00000449 8D 5D 84                        	LEA	EBX,DWORD [-124+EBP]
   598 0000044C 53                              	PUSH	EBX
   599 0000044D E8 [00000000]                   	CALL	_fifo32_status
   600 00000452 5A                              	POP	EDX
   601 00000453 85 C0                           	TEST	EAX,EAX
   602 00000455 7E 0D                           	JLE	L5
   603 00000457 83 BD FFFFFBAC 00               	CMP	DWORD [-1108+EBP],0
   604 0000045E 0F 88 000006D5                  	JS	L60
   605 00000464                                 L5:
   606 00000464 8D 5D A4                        	LEA	EBX,DWORD [-92+EBP]
   607 00000467 E8 [00000000]                   	CALL	_io_cli
   608 0000046C 53                              	PUSH	EBX
   609 0000046D E8 [00000000]                   	CALL	_fifo32_status
   610 00000472 5E                              	POP	ESI
   611 00000473 85 C0                           	TEST	EAX,EAX
   612 00000475 0F 84 000006A8                  	JE	L61
   613 0000047B 53                              	PUSH	EBX
   614 0000047C E8 [00000000]                   	CALL	_fifo32_get
   615 00000481 89 C6                           	MOV	ESI,EAX
   616 00000483 E8 [00000000]                   	CALL	_io_sti
   617 00000488 59                              	POP	ECX
   618 00000489 8D 86 FFFFFF00                  	LEA	EAX,DWORD [-256+ESI]
   619 0000048F 3D 000000FF                     	CMP	EAX,255
   620 00000494 0F 86 000001AC                  	JBE	L62
   621 0000049A 8D 86 FFFFFE00                  	LEA	EAX,DWORD [-512+ESI]
   622 000004A0 3D 000000FF                     	CMP	EAX,255
   623 000004A5 0F 86 000000C2                  	JBE	L63
   624 000004AB 83 FE 01                        	CMP	ESI,1
   625 000004AE 7F 99                           	JG	L2
   626 000004B0 85 F6                           	TEST	ESI,ESI
   627 000004B2 0F 84 00000088                  	JE	L53
   628 000004B8 6A 00                           	PUSH	0
   629 000004BA 53                              	PUSH	EBX
   630 000004BB FF B5 FFFFFBBC                  	PUSH	DWORD [-1092+EBP]
   631 000004C1 E8 [00000000]                   	CALL	_timer_init
   632 000004C6 83 C4 0C                        	ADD	ESP,12
   633 000004C9 83 BD FFFFFBE0 00               	CMP	DWORD [-1056+EBP],0
   634 000004D0 78 0A                           	JS	L55
   635 000004D2 C7 85 FFFFFBE0 00000000         	MOV	DWORD [-1056+EBP],0
   636 000004DC                                 L55:
   637 000004DC 6A 32                           	PUSH	50
   638 000004DE FF B5 FFFFFBBC                  	PUSH	DWORD [-1092+EBP]
   639 000004E4 E8 [00000000]                   	CALL	_timer_settime
   640 000004E9 58                              	POP	EAX
   641 000004EA 5A                              	POP	EDX
   642 000004EB 83 BD FFFFFBE0 00               	CMP	DWORD [-1056+EBP],0
   643 000004F2 0F 88 FFFFFF51                  	JS	L2
   644 000004F8 8B 85 FFFFFBE4                  	MOV	EAX,DWORD [-1052+EBP]
   645 000004FE 6A 2B                           	PUSH	43
   646 00000500 83 C0 07                        	ADD	EAX,7
   647 00000503 50                              	PUSH	EAX
   648 00000504 6A 1C                           	PUSH	28
   649 00000506 FF B5 FFFFFBE4                  	PUSH	DWORD [-1052+EBP]
   650 0000050C 0F B6 85 FFFFFBE0               	MOVZX	EAX,BYTE [-1056+EBP]
   651 00000513 50                              	PUSH	EAX
   652 00000514 FF 77 04                        	PUSH	DWORD [4+EDI]
   653 00000517 FF 37                           	PUSH	DWORD [EDI]
   654 00000519 E8 [00000000]                   	CALL	_boxfill8
   655 0000051E 8B 85 FFFFFBE4                  	MOV	EAX,DWORD [-1052+EBP]
   656 00000524 6A 2C                           	PUSH	44
   657 00000526 83 C0 08                        	ADD	EAX,8
   658 00000529 50                              	PUSH	EAX
   659 0000052A 6A 1C                           	PUSH	28
   660 0000052C FF B5 FFFFFBE4                  	PUSH	DWORD [-1052+EBP]
   661 00000532 57                              	PUSH	EDI
   662 00000533 E8 [00000000]                   	CALL	_sheet_refresh
   663 00000538 83 C4 30                        	ADD	ESP,48
   664 0000053B E9 FFFFFF09                     	JMP	L2
   665 00000540                                 L53:
   666 00000540 6A 01                           	PUSH	1
   667 00000542 53                              	PUSH	EBX
   668 00000543 FF B5 FFFFFBBC                  	PUSH	DWORD [-1092+EBP]
   669 00000549 E8 [00000000]                   	CALL	_timer_init
   670 0000054E 83 C4 0C                        	ADD	ESP,12
   671 00000551 83 BD FFFFFBE0 00               	CMP	DWORD [-1056+EBP],0
   672 00000558 0F 88 FFFFFF7E                  	JS	L55
   673 0000055E C7 85 FFFFFBE0 00000007         	MOV	DWORD [-1056+EBP],7
   674 00000568 E9 FFFFFF6F                     	JMP	L55
   675 0000056D                                 L63:
   676 0000056D 89 F2                           	MOV	EDX,ESI
   677 0000056F 0F B6 C2                        	MOVZX	EAX,DL
   678 00000572 50                              	PUSH	EAX
   679 00000573 8D 85 FFFFFCF4                  	LEA	EAX,DWORD [-780+EBP]
   680 00000579 50                              	PUSH	EAX
   681 0000057A E8 [00000000]                   	CALL	_mouse_decode
   682 0000057F 59                              	POP	ECX
   683 00000580 5B                              	POP	EBX
   684 00000581 85 C0                           	TEST	EAX,EAX
   685 00000583 0F 84 FFFFFEC0                  	JE	L2
   686 00000589 8B 85 FFFFFCFC                  	MOV	EAX,DWORD [-772+EBP]
   687 0000058F 8B 95 FFFFFCF8                  	MOV	EDX,DWORD [-776+EBP]
   688 00000595 01 85 FFFFFBE8                  	ADD	DWORD [-1048+EBP],EAX
   689 0000059B 01 95 FFFFFBEC                  	ADD	DWORD [-1044+EBP],EDX
   690 000005A1 0F 88 00000090                  	JS	L64
   691 000005A7                                 L46:
   692 000005A7 83 BD FFFFFBE8 00               	CMP	DWORD [-1048+EBP],0
   693 000005AE 78 78                           	JS	L65
   694 000005B0                                 L47:
   695 000005B0 0F BF 05 00000FF4               	MOVSX	EAX,WORD [4084]
   696 000005B7 48                              	DEC	EAX
   697 000005B8 39 85 FFFFFBEC                  	CMP	DWORD [-1044+EBP],EAX
   698 000005BE 7E 06                           	JLE	L48
   699 000005C0 89 85 FFFFFBEC                  	MOV	DWORD [-1044+EBP],EAX
   700 000005C6                                 L48:
   701 000005C6 0F BF 05 00000FF6               	MOVSX	EAX,WORD [4086]
   702 000005CD 48                              	DEC	EAX
   703 000005CE 39 85 FFFFFBE8                  	CMP	DWORD [-1048+EBP],EAX
   704 000005D4 7E 06                           	JLE	L49
   705 000005D6 89 85 FFFFFBE8                  	MOV	DWORD [-1048+EBP],EAX
   706 000005DC                                 L49:
   707 000005DC FF B5 FFFFFBE8                  	PUSH	DWORD [-1048+EBP]
   708 000005E2 FF B5 FFFFFBEC                  	PUSH	DWORD [-1044+EBP]
   709 000005E8 FF B5 FFFFFBCC                  	PUSH	DWORD [-1076+EBP]
   710 000005EE E8 [00000000]                   	CALL	_sheet_slide
   711 000005F3 83 C4 0C                        	ADD	ESP,12
   712 000005F6 F7 85 FFFFFD00 00000001         	TEST	DWORD [-768+EBP],1
   713 00000600 0F 84 FFFFFE43                  	JE	L2
   714 00000606 8B 85 FFFFFBE8                  	MOV	EAX,DWORD [-1048+EBP]
   715 0000060C 83 E8 08                        	SUB	EAX,8
   716 0000060F 50                              	PUSH	EAX
   717 00000610 8B 85 FFFFFBEC                  	MOV	EAX,DWORD [-1044+EBP]
   718 00000616 83 E8 50                        	SUB	EAX,80
   719 00000619 50                              	PUSH	EAX
   720 0000061A 57                              	PUSH	EDI
   721 0000061B E8 [00000000]                   	CALL	_sheet_slide
   722 00000620 83 C4 0C                        	ADD	ESP,12
   723 00000623 E9 FFFFFE21                     	JMP	L2
   724 00000628                                 L65:
   725 00000628 C7 85 FFFFFBE8 00000000         	MOV	DWORD [-1048+EBP],0
   726 00000632 E9 FFFFFF79                     	JMP	L47
   727 00000637                                 L64:
   728 00000637 C7 85 FFFFFBEC 00000000         	MOV	DWORD [-1044+EBP],0
   729 00000641 E9 FFFFFF61                     	JMP	L46
   730 00000646                                 L62:
   731 00000646 50                              	PUSH	EAX
   732 00000647 8D 9D FFFFFBF2                  	LEA	EBX,DWORD [-1038+EBP]
   733 0000064D 68 [0000010F]                   	PUSH	LC2
   734 00000652 53                              	PUSH	EBX
   735 00000653 E8 [00000000]                   	CALL	_sprintf
   736 00000658 6A 02                           	PUSH	2
   737 0000065A 53                              	PUSH	EBX
   738 0000065B 6A 07                           	PUSH	7
   739 0000065D 6A 00                           	PUSH	0
   740 0000065F 6A 1C                           	PUSH	28
   741 00000661 FF B5 FFFFFBE4                  	PUSH	DWORD [-1052+EBP]
   742 00000667 57                              	PUSH	EDI
   743 00000668 E8 [00000000]                   	CALL	_putfonts8_asc_sht
   744 0000066D 83 C4 28                        	ADD	ESP,40
   745 00000670 83 85 FFFFFBE4 10               	ADD	DWORD [-1052+EBP],16
   746 00000677 81 FE 0000017F                  	CMP	ESI,383
   747 0000067D 0F 8F 00000497                  	JG	L9
   748 00000683 83 BD FFFFFBB4 00               	CMP	DWORD [-1100+EBP],0
   749 0000068A 0F 85 0000047F                  	JNE	L10
   750 00000690 8A 86 [FFFFFF00]                	MOV	AL,BYTE [_keytable0.0-256+ESI]
   751 00000696                                 L59:
   752 00000696 88 45 C4                        	MOV	BYTE [-60+EBP],AL
   753 00000699                                 L12:
   754 00000699 8A 55 C4                        	MOV	DL,BYTE [-60+EBP]
   755 0000069C 8D 42 BF                        	LEA	EAX,DWORD [-65+EDX]
   756 0000069F 3C 19                           	CMP	AL,25
   757 000006A1 77 1D                           	JA	L13
   758 000006A3 F7 85 FFFFFBB0 00000004         	TEST	DWORD [-1104+EBP],4
   759 000006AD 0F 85 0000044D                  	JNE	L58
   760 000006B3 83 BD FFFFFBB4 00               	CMP	DWORD [-1100+EBP],0
   761 000006BA 0F 84 00000435                  	JE	L15
   762 000006C0                                 L13:
   763 000006C0 8A 45 C4                        	MOV	AL,BYTE [-60+EBP]
   764 000006C3 84 C0                           	TEST	AL,AL
   765 000006C5 74 3C                           	JE	L17
   766 000006C7 83 BD FFFFFBB8 00               	CMP	DWORD [-1096+EBP],0
   767 000006CE 0F 85 00000402                  	JNE	L18
   768 000006D4 83 BD FFFFFBE4 7F               	CMP	DWORD [-1052+EBP],127
   769 000006DB 7F 26                           	JG	L17
   770 000006DD 6A 01                           	PUSH	1
   771 000006DF 8D 45 C4                        	LEA	EAX,DWORD [-60+EBP]
   772 000006E2 50                              	PUSH	EAX
   773 000006E3 6A 07                           	PUSH	7
   774 000006E5 6A 00                           	PUSH	0
   775 000006E7 6A 1C                           	PUSH	28
   776 000006E9 FF B5 FFFFFBE4                  	PUSH	DWORD [-1052+EBP]
   777 000006EF 57                              	PUSH	EDI
   778 000006F0 C6 45 C5 00                     	MOV	BYTE [-59+EBP],0
   779 000006F4 E8 [00000000]                   	CALL	_putfonts8_asc_sht
   780 000006F9 83 C4 1C                        	ADD	ESP,28
   781 000006FC 83 85 FFFFFBE4 08               	ADD	DWORD [-1052+EBP],8
   782 00000703                                 L17:
   783 00000703 81 FE 0000010E                  	CMP	ESI,270
   784 00000709 0F 84 0000036E                  	JE	L66
   785 0000070F                                 L21:
   786 0000070F 81 FE 0000011C                  	CMP	ESI,284
   787 00000715 0F 84 0000033A                  	JE	L67
   788 0000071B                                 L25:
   789 0000071B 81 FE 0000010F                  	CMP	ESI,271
   790 00000721 0F 84 0000021B                  	JE	L68
   791 00000727                                 L27:
   792 00000727 81 FE 0000012A                  	CMP	ESI,298
   793 0000072D 0F 84 00000203                  	JE	L69
   794 00000733                                 L30:
   795 00000733 81 FE 00000136                  	CMP	ESI,310
   796 00000739 0F 84 000001EB                  	JE	L70
   797 0000073F                                 L31:
   798 0000073F 81 FE 0000011D                  	CMP	ESI,285
   799 00000745 0F 84 000001D3                  	JE	L71
   800 0000074B                                 L32:
   801 0000074B 81 FE 000001AA                  	CMP	ESI,426
   802 00000751 0F 84 000001BB                  	JE	L72
   803 00000757                                 L33:
   804 00000757 81 FE 000001B6                  	CMP	ESI,438
   805 0000075D 0F 84 000001A3                  	JE	L73
   806 00000763                                 L34:
   807 00000763 81 FE 0000019D                  	CMP	ESI,413
   808 00000769 0F 84 0000018B                  	JE	L74
   809 0000076F                                 L35:
   810 0000076F 81 FE 0000013A                  	CMP	ESI,314
   811 00000775 0F 84 00000156                  	JE	L75
   812 0000077B                                 L36:
   813 0000077B 81 FE 00000145                  	CMP	ESI,325
   814 00000781 0F 84 00000121                  	JE	L76
   815 00000787                                 L37:
   816 00000787 81 FE 00000146                  	CMP	ESI,326
   817 0000078D 0F 84 000000EC                  	JE	L77
   818 00000793                                 L38:
   819 00000793 81 FE 00000163                  	CMP	ESI,355
   820 00000799 0F 84 00000089                  	JE	L78
   821 0000079F                                 L39:
   822 0000079F 81 FE 000001FA                  	CMP	ESI,506
   823 000007A5 74 72                           	JE	L79
   824 000007A7                                 L40:
   825 000007A7 81 FE 000001FE                  	CMP	ESI,510
   826 000007AD 74 54                           	JE	L80
   827 000007AF                                 L41:
   828 000007AF 83 BD FFFFFBE0 00               	CMP	DWORD [-1056+EBP],0
   829 000007B6 78 29                           	JS	L42
   830 000007B8 8B 85 FFFFFBE4                  	MOV	EAX,DWORD [-1052+EBP]
   831 000007BE 6A 2B                           	PUSH	43
   832 000007C0 83 C0 07                        	ADD	EAX,7
   833 000007C3 50                              	PUSH	EAX
   834 000007C4 6A 1C                           	PUSH	28
   835 000007C6 FF B5 FFFFFBE4                  	PUSH	DWORD [-1052+EBP]
   836 000007CC 0F B6 85 FFFFFBE0               	MOVZX	EAX,BYTE [-1056+EBP]
   837 000007D3 50                              	PUSH	EAX
   838 000007D4 FF 77 04                        	PUSH	DWORD [4+EDI]
   839 000007D7 FF 37                           	PUSH	DWORD [EDI]
   840 000007D9 E8 [00000000]                   	CALL	_boxfill8
   841 000007DE 83 C4 1C                        	ADD	ESP,28
   842 000007E1                                 L42:
   843 000007E1 8B 85 FFFFFBE4                  	MOV	EAX,DWORD [-1052+EBP]
   844 000007E7 6A 2C                           	PUSH	44
   845 000007E9 83 C0 08                        	ADD	EAX,8
   846 000007EC 50                              	PUSH	EAX
   847 000007ED 6A 1C                           	PUSH	28
   848 000007EF FF B5 FFFFFBE4                  	PUSH	DWORD [-1052+EBP]
   849 000007F5 57                              	PUSH	EDI
   850 000007F6 E8 [00000000]                   	CALL	_sheet_refresh
   851 000007FB 83 C4 14                        	ADD	ESP,20
   852 000007FE E9 FFFFFC46                     	JMP	L2
   853 00000803                                 L80:
   854 00000803 E8 [00000000]                   	CALL	_wait_KBC_sendready
   855 00000808 FF B5 FFFFFBAC                  	PUSH	DWORD [-1108+EBP]
   856 0000080E 6A 60                           	PUSH	96
   857 00000810 E8 [00000000]                   	CALL	_io_out8
   858 00000815 5E                              	POP	ESI
   859 00000816 58                              	POP	EAX
   860 00000817 EB 96                           	JMP	L41
   861 00000819                                 L79:
   862 00000819 C7 85 FFFFFBAC FFFFFFFF         	MOV	DWORD [-1108+EBP],-1
   863 00000823 E9 FFFFFF7F                     	JMP	L40
   864 00000828                                 L78:
   865 00000828 83 BD FFFFFBB4 00               	CMP	DWORD [-1100+EBP],0
   866 0000082F 0F 84 FFFFFF6A                  	JE	L39
   867 00000835 8B 85 FFFFFBC0                  	MOV	EAX,DWORD [-1088+EBP]
   868 0000083B 83 78 34 00                     	CMP	DWORD [52+EAX],0
   869 0000083F 0F 84 FFFFFF5A                  	JE	L39
   870 00000845 68 [00000114]                   	PUSH	LC4
   871 0000084A FF 35 00000FEC                  	PUSH	DWORD [4076]
   872 00000850 E8 [00000000]                   	CALL	_cons_putstr0
   873 00000855 E8 [00000000]                   	CALL	_io_cli
   874 0000085A 8B 95 FFFFFBC0                  	MOV	EDX,DWORD [-1088+EBP]
   875 00000860 8B 85 FFFFFBC0                  	MOV	EAX,DWORD [-1088+EBP]
   876 00000866 83 C0 30                        	ADD	EAX,48
   877 00000869 89 42 54                        	MOV	DWORD [84+EDX],EAX
   878 0000086C C7 42 4C [00000000]             	MOV	DWORD [76+EDX],_asm_end_app
   879 00000873 E8 [00000000]                   	CALL	_io_sti
   880 00000878 58                              	POP	EAX
   881 00000879 5A                              	POP	EDX
   882 0000087A E9 FFFFFF20                     	JMP	L39
   883 0000087F                                 L77:
   884 0000087F 68 000000ED                     	PUSH	237
   885 00000884 8D 5D 84                        	LEA	EBX,DWORD [-124+EBP]
   886 00000887 53                              	PUSH	EBX
   887 00000888 83 B5 FFFFFBB0 01               	XOR	DWORD [-1104+EBP],1
   888 0000088F E8 [00000000]                   	CALL	_fifo32_put
   889 00000894 FF B5 FFFFFBB0                  	PUSH	DWORD [-1104+EBP]
   890 0000089A 53                              	PUSH	EBX
   891 0000089B E8 [00000000]                   	CALL	_fifo32_put
   892 000008A0 83 C4 10                        	ADD	ESP,16
   893 000008A3 E9 FFFFFEEB                     	JMP	L38
   894 000008A8                                 L76:
   895 000008A8 68 000000ED                     	PUSH	237
   896 000008AD 8D 5D 84                        	LEA	EBX,DWORD [-124+EBP]
   897 000008B0 53                              	PUSH	EBX
   898 000008B1 83 B5 FFFFFBB0 02               	XOR	DWORD [-1104+EBP],2
   899 000008B8 E8 [00000000]                   	CALL	_fifo32_put
   900 000008BD FF B5 FFFFFBB0                  	PUSH	DWORD [-1104+EBP]
   901 000008C3 53                              	PUSH	EBX
   902 000008C4 E8 [00000000]                   	CALL	_fifo32_put
   903 000008C9 83 C4 10                        	ADD	ESP,16
   904 000008CC E9 FFFFFEB6                     	JMP	L37
   905 000008D1                                 L75:
   906 000008D1 68 000000ED                     	PUSH	237
   907 000008D6 8D 5D 84                        	LEA	EBX,DWORD [-124+EBP]
   908 000008D9 53                              	PUSH	EBX
   909 000008DA 83 B5 FFFFFBB0 04               	XOR	DWORD [-1104+EBP],4
   910 000008E1 E8 [00000000]                   	CALL	_fifo32_put
   911 000008E6 FF B5 FFFFFBB0                  	PUSH	DWORD [-1104+EBP]
   912 000008EC 53                              	PUSH	EBX
   913 000008ED E8 [00000000]                   	CALL	_fifo32_put
   914 000008F2 83 C4 10                        	ADD	ESP,16
   915 000008F5 E9 FFFFFE81                     	JMP	L36
   916 000008FA                                 L74:
   917 000008FA 83 A5 FFFFFBB4 FB               	AND	DWORD [-1100+EBP],-5
   918 00000901 E9 FFFFFE69                     	JMP	L35
   919 00000906                                 L73:
   920 00000906 83 A5 FFFFFBB4 FD               	AND	DWORD [-1100+EBP],-3
   921 0000090D E9 FFFFFE51                     	JMP	L34
   922 00000912                                 L72:
   923 00000912 83 A5 FFFFFBB4 FE               	AND	DWORD [-1100+EBP],-2
   924 00000919 E9 FFFFFE39                     	JMP	L33
   925 0000091E                                 L71:
   926 0000091E 83 8D FFFFFBB4 04               	OR	DWORD [-1100+EBP],4
   927 00000925 E9 FFFFFE21                     	JMP	L32
   928 0000092A                                 L70:
   929 0000092A 83 8D FFFFFBB4 02               	OR	DWORD [-1100+EBP],2
   930 00000931 E9 FFFFFE09                     	JMP	L31
   931 00000936                                 L69:
   932 00000936 83 8D FFFFFBB4 01               	OR	DWORD [-1100+EBP],1
   933 0000093D E9 FFFFFDF1                     	JMP	L30
   934 00000942                                 L68:
   935 00000942 83 BD FFFFFBB8 00               	CMP	DWORD [-1096+EBP],0
   936 00000949 0F 85 000000A7                  	JNE	L28
   937 0000094F 6A 00                           	PUSH	0
   938 00000951 68 [00000108]                   	PUSH	LC1
   939 00000956 FF 77 04                        	PUSH	DWORD [4+EDI]
   940 00000959 FF B5 FFFFFBD8                  	PUSH	DWORD [-1064+EBP]
   941 0000095F C7 85 FFFFFBB8 00000001         	MOV	DWORD [-1096+EBP],1
   942 00000969 E8 [00000000]                   	CALL	_make_wtitle8
   943 0000096E 8B 95 FFFFFBC8                  	MOV	EDX,DWORD [-1080+EBP]
   944 00000974 6A 01                           	PUSH	1
   945 00000976 68 [00000100]                   	PUSH	LC0
   946 0000097B FF 72 04                        	PUSH	DWORD [4+EDX]
   947 0000097E FF B5 FFFFFBD4                  	PUSH	DWORD [-1068+EBP]
   948 00000984 E8 [00000000]                   	CALL	_make_wtitle8
   949 00000989 8B 85 FFFFFBE4                  	MOV	EAX,DWORD [-1052+EBP]
   950 0000098F 83 C4 20                        	ADD	ESP,32
   951 00000992 83 C0 07                        	ADD	EAX,7
   952 00000995 C7 85 FFFFFBE0 FFFFFFFF         	MOV	DWORD [-1056+EBP],-1
   953 0000099F 6A 2B                           	PUSH	43
   954 000009A1 50                              	PUSH	EAX
   955 000009A2 6A 1C                           	PUSH	28
   956 000009A4 FF B5 FFFFFBE4                  	PUSH	DWORD [-1052+EBP]
   957 000009AA 6A 07                           	PUSH	7
   958 000009AC FF 77 04                        	PUSH	DWORD [4+EDI]
   959 000009AF FF 37                           	PUSH	DWORD [EDI]
   960 000009B1 E8 [00000000]                   	CALL	_boxfill8
   961 000009B6 8B 85 FFFFFBC0                  	MOV	EAX,DWORD [-1088+EBP]
   962 000009BC 6A 02                           	PUSH	2
   963 000009BE 83 C0 10                        	ADD	EAX,16
   964 000009C1 50                              	PUSH	EAX
   965 000009C2 E8 [00000000]                   	CALL	_fifo32_put
   966 000009C7 83 C4 24                        	ADD	ESP,36
   967 000009CA                                 L29:
   968 000009CA 6A 15                           	PUSH	21
   969 000009CC FF 77 04                        	PUSH	DWORD [4+EDI]
   970 000009CF 6A 00                           	PUSH	0
   971 000009D1 6A 00                           	PUSH	0
   972 000009D3 57                              	PUSH	EDI
   973 000009D4 E8 [00000000]                   	CALL	_sheet_refresh
   974 000009D9 8B 95 FFFFFBC8                  	MOV	EDX,DWORD [-1080+EBP]
   975 000009DF 6A 15                           	PUSH	21
   976 000009E1 FF 72 04                        	PUSH	DWORD [4+EDX]
   977 000009E4 6A 00                           	PUSH	0
   978 000009E6 6A 00                           	PUSH	0
   979 000009E8 52                              	PUSH	EDX
   980 000009E9 E8 [00000000]                   	CALL	_sheet_refresh
   981 000009EE 83 C4 28                        	ADD	ESP,40
   982 000009F1 E9 FFFFFD31                     	JMP	L27
   983 000009F6                                 L28:
   984 000009F6 6A 01                           	PUSH	1
   985 000009F8 68 [00000108]                   	PUSH	LC1
   986 000009FD FF 77 04                        	PUSH	DWORD [4+EDI]
   987 00000A00 FF B5 FFFFFBD8                  	PUSH	DWORD [-1064+EBP]
   988 00000A06 C7 85 FFFFFBB8 00000000         	MOV	DWORD [-1096+EBP],0
   989 00000A10 E8 [00000000]                   	CALL	_make_wtitle8
   990 00000A15 8B 85 FFFFFBC8                  	MOV	EAX,DWORD [-1080+EBP]
   991 00000A1B 6A 00                           	PUSH	0
   992 00000A1D 68 [00000100]                   	PUSH	LC0
   993 00000A22 FF 70 04                        	PUSH	DWORD [4+EAX]
   994 00000A25 FF B5 FFFFFBD4                  	PUSH	DWORD [-1068+EBP]
   995 00000A2B E8 [00000000]                   	CALL	_make_wtitle8
   996 00000A30 8B 85 FFFFFBC0                  	MOV	EAX,DWORD [-1088+EBP]
   997 00000A36 83 C4 20                        	ADD	ESP,32
   998 00000A39 83 C0 10                        	ADD	EAX,16
   999 00000A3C C7 85 FFFFFBE0 00000000         	MOV	DWORD [-1056+EBP],0
  1000 00000A46 6A 03                           	PUSH	3
  1001 00000A48 50                              	PUSH	EAX
  1002 00000A49 E8 [00000000]                   	CALL	_fifo32_put
  1003 00000A4E 59                              	POP	ECX
  1004 00000A4F 5B                              	POP	EBX
  1005 00000A50 E9 FFFFFF75                     	JMP	L29
  1006 00000A55                                 L67:
  1007 00000A55 83 BD FFFFFBB8 00               	CMP	DWORD [-1096+EBP],0
  1008 00000A5C 0F 84 FFFFFCB9                  	JE	L25
  1009 00000A62 8B 85 FFFFFBC0                  	MOV	EAX,DWORD [-1088+EBP]
  1010 00000A68 68 0000010A                     	PUSH	266
  1011 00000A6D 83 C0 10                        	ADD	EAX,16
  1012 00000A70 50                              	PUSH	EAX
  1013 00000A71 E8 [00000000]                   	CALL	_fifo32_put
  1014 00000A76 58                              	POP	EAX
  1015 00000A77 5A                              	POP	EDX
  1016 00000A78 E9 FFFFFC9E                     	JMP	L25
  1017 00000A7D                                 L66:
  1018 00000A7D 83 BD FFFFFBB8 00               	CMP	DWORD [-1096+EBP],0
  1019 00000A84 75 35                           	JNE	L22
  1020 00000A86 83 BD FFFFFBE4 08               	CMP	DWORD [-1052+EBP],8
  1021 00000A8D 0F 8E FFFFFC7C                  	JLE	L21
  1022 00000A93 6A 01                           	PUSH	1
  1023 00000A95 68 [00000123]                   	PUSH	LC3
  1024 00000A9A 6A 07                           	PUSH	7
  1025 00000A9C 6A 00                           	PUSH	0
  1026 00000A9E 6A 1C                           	PUSH	28
  1027 00000AA0 FF B5 FFFFFBE4                  	PUSH	DWORD [-1052+EBP]
  1028 00000AA6 57                              	PUSH	EDI
  1029 00000AA7 E8 [00000000]                   	CALL	_putfonts8_asc_sht
  1030 00000AAC 83 C4 1C                        	ADD	ESP,28
  1031 00000AAF 83 AD FFFFFBE4 08               	SUB	DWORD [-1052+EBP],8
  1032 00000AB6 E9 FFFFFC54                     	JMP	L21
  1033 00000ABB                                 L22:
  1034 00000ABB 8B 85 FFFFFBC0                  	MOV	EAX,DWORD [-1088+EBP]
  1035 00000AC1 68 00000108                     	PUSH	264
  1036 00000AC6 83 C0 10                        	ADD	EAX,16
  1037 00000AC9 50                              	PUSH	EAX
  1038 00000ACA E8 [00000000]                   	CALL	_fifo32_put
  1039 00000ACF 59                              	POP	ECX
  1040 00000AD0 5B                              	POP	EBX
  1041 00000AD1 E9 FFFFFC39                     	JMP	L21
  1042 00000AD6                                 L18:
  1043 00000AD6 0F BE C0                        	MOVSX	EAX,AL
  1044 00000AD9 05 00000100                     	ADD	EAX,256
  1045 00000ADE 50                              	PUSH	EAX
  1046 00000ADF 8B 85 FFFFFBC0                  	MOV	EAX,DWORD [-1088+EBP]
  1047 00000AE5 83 C0 10                        	ADD	EAX,16
  1048 00000AE8 50                              	PUSH	EAX
  1049 00000AE9 E8 [00000000]                   	CALL	_fifo32_put
  1050 00000AEE 58                              	POP	EAX
  1051 00000AEF 5A                              	POP	EDX
  1052 00000AF0 E9 FFFFFC0E                     	JMP	L17
  1053 00000AF5                                 L15:
  1054 00000AF5 8D 42 20                        	LEA	EAX,DWORD [32+EDX]
  1055 00000AF8 88 45 C4                        	MOV	BYTE [-60+EBP],AL
  1056 00000AFB E9 FFFFFBC0                     	JMP	L13
  1057 00000B00                                 L58:
  1058 00000B00 83 BD FFFFFBB4 00               	CMP	DWORD [-1100+EBP],0
  1059 00000B07 0F 84 FFFFFBB3                  	JE	L13
  1060 00000B0D EB E6                           	JMP	L15
  1061 00000B0F                                 L10:
  1062 00000B0F 8A 86 [FFFFFF80]                	MOV	AL,BYTE [_keytable1.1-256+ESI]
  1063 00000B15 E9 FFFFFB7C                     	JMP	L59
  1064 00000B1A                                 L9:
  1065 00000B1A C6 45 C4 00                     	MOV	BYTE [-60+EBP],0
  1066 00000B1E E9 FFFFFB76                     	JMP	L12
  1067 00000B23                                 L61:
  1068 00000B23 FF B5 FFFFFBC4                  	PUSH	DWORD [-1084+EBP]
  1069 00000B29 E8 [00000000]                   	CALL	_task_sleep
  1070 00000B2E E8 [00000000]                   	CALL	_io_sti
  1071 00000B33 5B                              	POP	EBX
  1072 00000B34 E9 FFFFF910                     	JMP	L2
  1073 00000B39                                 L60:
  1074 00000B39 53                              	PUSH	EBX
  1075 00000B3A E8 [00000000]                   	CALL	_fifo32_get
  1076 00000B3F 89 85 FFFFFBAC                  	MOV	DWORD [-1108+EBP],EAX
  1077 00000B45 E8 [00000000]                   	CALL	_wait_KBC_sendready
  1078 00000B4A FF B5 FFFFFBAC                  	PUSH	DWORD [-1108+EBP]
  1079 00000B50 6A 60                           	PUSH	96
  1080 00000B52 E8 [00000000]                   	CALL	_io_out8
  1081 00000B57 83 C4 0C                        	ADD	ESP,12
  1082 00000B5A E9 FFFFF905                     	JMP	L5
