     1 00000000                                 [FORMAT "WCOFF"]
     2 00000000                                 [INSTRSET "i486p"]
     3 00000000                                 [OPTIMIZE 1]
     4 00000000                                 [OPTION 1]
     5 00000000                                 [BITS 32]
     6 00000000                                 	EXTERN	_memman_alloc_4k
     7 00000000                                 	EXTERN	_memman_free_4k
     8 00000000                                 [FILE "sheet.c"]
     9                                          [SECTION .text]
    10 00000000                                 	GLOBAL	_shtctl_init
    11 00000000                                 _shtctl_init:
    12 00000000 55                              	PUSH	EBP
    13 00000001 89 E5                           	MOV	EBP,ESP
    14 00000003 57                              	PUSH	EDI
    15 00000004 56                              	PUSH	ESI
    16 00000005 53                              	PUSH	EBX
    17 00000006 8B 75 08                        	MOV	ESI,DWORD [8+EBP]
    18 00000009 68 00002C14                     	PUSH	11284
    19 0000000E 8B 7D 10                        	MOV	EDI,DWORD [16+EBP]
    20 00000011 56                              	PUSH	ESI
    21 00000012 E8 [00000000]                   	CALL	_memman_alloc_4k
    22 00000017 89 C3                           	MOV	EBX,EAX
    23 00000019 58                              	POP	EAX
    24 0000001A 5A                              	POP	EDX
    25 0000001B 85 DB                           	TEST	EBX,EBX
    26 0000001D 74 4A                           	JE	L3
    27 0000001F 8B 45 14                        	MOV	EAX,DWORD [20+EBP]
    28 00000022 0F AF C7                        	IMUL	EAX,EDI
    29 00000025 50                              	PUSH	EAX
    30 00000026 56                              	PUSH	ESI
    31 00000027 E8 [00000000]                   	CALL	_memman_alloc_4k
    32 0000002C 85 C0                           	TEST	EAX,EAX
    33 0000002E 89 43 04                        	MOV	DWORD [4+EBX],EAX
    34 00000031 5A                              	POP	EDX
    35 00000032 59                              	POP	ECX
    36 00000033 74 3E                           	JE	L11
    37 00000035 8B 45 0C                        	MOV	EAX,DWORD [12+EBP]
    38 00000038 89 7B 08                        	MOV	DWORD [8+EBX],EDI
    39 0000003B 89 03                           	MOV	DWORD [EBX],EAX
    40 0000003D 8D 93 000027D8                  	LEA	EDX,DWORD [10200+EBX]
    41 00000043 8B 45 14                        	MOV	EAX,DWORD [20+EBP]
    42 00000046 89 43 0C                        	MOV	DWORD [12+EBX],EAX
    43 00000049 89 D8                           	MOV	EAX,EBX
    44 0000004B C7 43 10 FFFFFFFF               	MOV	DWORD [16+EBX],-1
    45 00000052                                 L9:
    46 00000052 C7 80 00000430 00000000         	MOV	DWORD [1072+EAX],0
    47 0000005C 89 98 00000434                  	MOV	DWORD [1076+EAX],EBX
    48 00000062 83 C0 28                        	ADD	EAX,40
    49 00000065 39 D0                           	CMP	EAX,EDX
    50 00000067 7E E9                           	JLE	L9
    51 00000069                                 L3:
    52 00000069 8D 65 F4                        	LEA	ESP,DWORD [-12+EBP]
    53 0000006C 89 D8                           	MOV	EAX,EBX
    54 0000006E 5B                              	POP	EBX
    55 0000006F 5E                              	POP	ESI
    56 00000070 5F                              	POP	EDI
    57 00000071 5D                              	POP	EBP
    58 00000072 C3                              	RET
    59 00000073                                 L11:
    60 00000073 68 00002C14                     	PUSH	11284
    61 00000078 53                              	PUSH	EBX
    62 00000079 56                              	PUSH	ESI
    63 0000007A E8 [00000000]                   	CALL	_memman_free_4k
    64 0000007F 83 C4 0C                        	ADD	ESP,12
    65 00000082 EB E5                           	JMP	L3
    66 00000084                                 	GLOBAL	_sheet_alloc
    67 00000084                                 _sheet_alloc:
    68 00000084 55                              	PUSH	EBP
    69 00000085 31 D2                           	XOR	EDX,EDX
    70 00000087 89 E5                           	MOV	EBP,ESP
    71 00000089 8B 45 08                        	MOV	EAX,DWORD [8+EBP]
    72 0000008C 05 00000414                     	ADD	EAX,1044
    73 00000091                                 L18:
    74 00000091 83 78 1C 00                     	CMP	DWORD [28+EAX],0
    75 00000095 74 10                           	JE	L21
    76 00000097 42                              	INC	EDX
    77 00000098 83 C0 28                        	ADD	EAX,40
    78 0000009B 81 FA 000000FF                  	CMP	EDX,255
    79 000000A1 7E EE                           	JLE	L18
    80 000000A3 31 C0                           	XOR	EAX,EAX
    81 000000A5                                 L12:
    82 000000A5 5D                              	POP	EBP
    83 000000A6 C3                              	RET
    84 000000A7                                 L21:
    85 000000A7 C7 40 1C 00000001               	MOV	DWORD [28+EAX],1
    86 000000AE C7 40 18 FFFFFFFF               	MOV	DWORD [24+EAX],-1
    87 000000B5 C7 40 24 00000000               	MOV	DWORD [36+EAX],0
    88 000000BC EB E7                           	JMP	L12
    89 000000BE                                 	GLOBAL	_sheet_setbuf
    90 000000BE                                 _sheet_setbuf:
    91 000000BE 55                              	PUSH	EBP
    92 000000BF 89 E5                           	MOV	EBP,ESP
    93 000000C1 8B 55 08                        	MOV	EDX,DWORD [8+EBP]
    94 000000C4 8B 45 0C                        	MOV	EAX,DWORD [12+EBP]
    95 000000C7 89 02                           	MOV	DWORD [EDX],EAX
    96 000000C9 8B 45 10                        	MOV	EAX,DWORD [16+EBP]
    97 000000CC 89 42 04                        	MOV	DWORD [4+EDX],EAX
    98 000000CF 8B 45 14                        	MOV	EAX,DWORD [20+EBP]
    99 000000D2 89 42 08                        	MOV	DWORD [8+EDX],EAX
   100 000000D5 8B 45 18                        	MOV	EAX,DWORD [24+EBP]
   101 000000D8 89 42 14                        	MOV	DWORD [20+EDX],EAX
   102 000000DB 5D                              	POP	EBP
   103 000000DC C3                              	RET
   104 000000DD                                 	GLOBAL	_sheet_refreshmap
   105 000000DD                                 _sheet_refreshmap:
   106 000000DD 55                              	PUSH	EBP
   107 000000DE 89 E5                           	MOV	EBP,ESP
   108 000000E0 57                              	PUSH	EDI
   109 000000E1 56                              	PUSH	ESI
   110 000000E2 53                              	PUSH	EBX
   111 000000E3 83 EC 24                        	SUB	ESP,36
   112 000000E6 8B 45 08                        	MOV	EAX,DWORD [8+EBP]
   113 000000E9 83 7D 0C 00                     	CMP	DWORD [12+EBP],0
   114 000000ED 8B 40 04                        	MOV	EAX,DWORD [4+EAX]
   115 000000F0 89 45 D8                        	MOV	DWORD [-40+EBP],EAX
   116 000000F3 0F 88 0000016E                  	JS	L68
   117 000000F9                                 L24:
   118 000000F9 83 7D 10 00                     	CMP	DWORD [16+EBP],0
   119 000000FD 0F 88 00000158                  	JS	L69
   120 00000103                                 L25:
   121 00000103 8B 55 08                        	MOV	EDX,DWORD [8+EBP]
   122 00000106 8B 42 08                        	MOV	EAX,DWORD [8+EDX]
   123 00000109 39 45 14                        	CMP	DWORD [20+EBP],EAX
   124 0000010C 7E 03                           	JLE	L26
   125 0000010E 89 45 14                        	MOV	DWORD [20+EBP],EAX
   126 00000111                                 L26:
   127 00000111 8B 5D 08                        	MOV	EBX,DWORD [8+EBP]
   128 00000114 8B 43 0C                        	MOV	EAX,DWORD [12+EBX]
   129 00000117 39 45 18                        	CMP	DWORD [24+EBP],EAX
   130 0000011A 7E 03                           	JLE	L27
   131 0000011C 89 45 18                        	MOV	DWORD [24+EBP],EAX
   132 0000011F                                 L27:
   133 0000011F 8B 45 08                        	MOV	EAX,DWORD [8+EBP]
   134 00000122 8B 7D 1C                        	MOV	EDI,DWORD [28+EBP]
   135 00000125 89 7D F0                        	MOV	DWORD [-16+EBP],EDI
   136 00000128 3B 78 10                        	CMP	EDI,DWORD [16+EAX]
   137 0000012B 0F 8F 000000D2                  	JG	L61
   138 00000131                                 L59:
   139 00000131 8B 5D 08                        	MOV	EBX,DWORD [8+EBP]
   140 00000134 8B 55 F0                        	MOV	EDX,DWORD [-16+EBP]
   141 00000137 8B 4D 10                        	MOV	ECX,DWORD [16+EBP]
   142 0000013A 8B 74 93 14                     	MOV	ESI,DWORD [20+EBX+EDX*4]
   143 0000013E 89 F0                           	MOV	EAX,ESI
   144 00000140 29 D8                           	SUB	EAX,EBX
   145 00000142 8B 3E                           	MOV	EDI,DWORD [ESI]
   146 00000144 2D 00000414                     	SUB	EAX,1044
   147 00000149 8B 56 10                        	MOV	EDX,DWORD [16+ESI]
   148 0000014C C1 F8 03                        	SAR	EAX,3
   149 0000014F 89 7D E0                        	MOV	DWORD [-32+EBP],EDI
   150 00000152 69 C0 CCCCCCCD                  	IMUL	EAX,EAX,-858993459
   151 00000158 8B 7D 18                        	MOV	EDI,DWORD [24+EBP]
   152 0000015B 29 D1                           	SUB	ECX,EDX
   153 0000015D 29 D7                           	SUB	EDI,EDX
   154 0000015F 88 45 DF                        	MOV	BYTE [-33+EBP],AL
   155 00000162 8B 5D 14                        	MOV	EBX,DWORD [20+EBP]
   156 00000165 8B 55 0C                        	MOV	EDX,DWORD [12+EBP]
   157 00000168 8B 46 0C                        	MOV	EAX,DWORD [12+ESI]
   158 0000016B 89 7D E4                        	MOV	DWORD [-28+EBP],EDI
   159 0000016E 29 C3                           	SUB	EBX,EAX
   160 00000170 29 C2                           	SUB	EDX,EAX
   161 00000172 89 5D E8                        	MOV	DWORD [-24+EBP],EBX
   162 00000175 89 55 EC                        	MOV	DWORD [-20+EBP],EDX
   163 00000178 0F 88 000000D1                  	JS	L70
   164 0000017E                                 L32:
   165 0000017E 85 C9                           	TEST	ECX,ECX
   166 00000180 0F 88 000000C2                  	JS	L71
   167 00000186                                 L33:
   168 00000186 8B 46 04                        	MOV	EAX,DWORD [4+ESI]
   169 00000189 39 45 E8                        	CMP	DWORD [-24+EBP],EAX
   170 0000018C 7E 03                           	JLE	L34
   171 0000018E 89 45 E8                        	MOV	DWORD [-24+EBP],EAX
   172 00000191                                 L34:
   173 00000191 8B 46 08                        	MOV	EAX,DWORD [8+ESI]
   174 00000194 39 45 E4                        	CMP	DWORD [-28+EBP],EAX
   175 00000197 7E 03                           	JLE	L35
   176 00000199 89 45 E4                        	MOV	DWORD [-28+EBP],EAX
   177 0000019C                                 L35:
   178 0000019C 83 7E 14 FF                     	CMP	DWORD [20+ESI],-1
   179 000001A0 74 69                           	JE	L72
   180 000001A2 3B 4D E4                        	CMP	ECX,DWORD [-28+EBP]
   181 000001A5 7D 4A                           	JGE	L30
   182 000001A7                                 L58:
   183 000001A7 8B 46 10                        	MOV	EAX,DWORD [16+ESI]
   184 000001AA 8B 55 EC                        	MOV	EDX,DWORD [-20+EBP]
   185 000001AD 01 C8                           	ADD	EAX,ECX
   186 000001AF 3B 55 E8                        	CMP	EDX,DWORD [-24+EBP]
   187 000001B2 89 45 D0                        	MOV	DWORD [-48+EBP],EAX
   188 000001B5 7D 34                           	JGE	L67
   189 000001B7                                 L57:
   190 000001B7 89 C8                           	MOV	EAX,ECX
   191 000001B9 8B 7D E0                        	MOV	EDI,DWORD [-32+EBP]
   192 000001BC 0F AF 46 04                     	IMUL	EAX,DWORD [4+ESI]
   193 000001C0 01 D0                           	ADD	EAX,EDX
   194 000001C2 8B 5E 0C                        	MOV	EBX,DWORD [12+ESI]
   195 000001C5 01 D3                           	ADD	EBX,EDX
   196 000001C7 0F B6 3C 38                     	MOVZX	EDI,BYTE [EAX+EDI*1]
   197 000001CB 3B 7E 14                        	CMP	EDI,DWORD [20+ESI]
   198 000001CE 74 15                           	JE	L54
   199 000001D0 8B 45 08                        	MOV	EAX,DWORD [8+EBP]
   200 000001D3 8B 7D D0                        	MOV	EDI,DWORD [-48+EBP]
   201 000001D6 0F AF 78 08                     	IMUL	EDI,DWORD [8+EAX]
   202 000001DA 01 FB                           	ADD	EBX,EDI
   203 000001DC 8A 45 DF                        	MOV	AL,BYTE [-33+EBP]
   204 000001DF 8B 7D D8                        	MOV	EDI,DWORD [-40+EBP]
   205 000001E2 88 04 3B                        	MOV	BYTE [EBX+EDI*1],AL
   206 000001E5                                 L54:
   207 000001E5 42                              	INC	EDX
   208 000001E6 3B 55 E8                        	CMP	EDX,DWORD [-24+EBP]
   209 000001E9 7C CC                           	JL	L57
   210 000001EB                                 L67:
   211 000001EB 41                              	INC	ECX
   212 000001EC 3B 4D E4                        	CMP	ECX,DWORD [-28+EBP]
   213 000001EF 7C B6                           	JL	L58
   214 000001F1                                 L30:
   215 000001F1 8B 55 08                        	MOV	EDX,DWORD [8+EBP]
   216 000001F4 FF 45 F0                        	INC	DWORD [-16+EBP]
   217 000001F7 8B 45 F0                        	MOV	EAX,DWORD [-16+EBP]
   218 000001FA 3B 42 10                        	CMP	EAX,DWORD [16+EDX]
   219 000001FD 0F 8E FFFFFF2E                  	JLE	L59
   220 00000203                                 L61:
   221 00000203 83 C4 24                        	ADD	ESP,36
   222 00000206 5B                              	POP	EBX
   223 00000207 5E                              	POP	ESI
   224 00000208 5F                              	POP	EDI
   225 00000209 5D                              	POP	EBP
   226 0000020A C3                              	RET
   227 0000020B                                 L72:
   228 0000020B 3B 4D E4                        	CMP	ECX,DWORD [-28+EBP]
   229 0000020E 7D E1                           	JGE	L30
   230 00000210                                 L46:
   231 00000210 8B 5E 10                        	MOV	EBX,DWORD [16+ESI]
   232 00000213 8B 55 EC                        	MOV	EDX,DWORD [-20+EBP]
   233 00000216 01 CB                           	ADD	EBX,ECX
   234 00000218 3B 55 E8                        	CMP	EDX,DWORD [-24+EBP]
   235 0000021B 89 5D D0                        	MOV	DWORD [-48+EBP],EBX
   236 0000021E 7D 20                           	JGE	L64
   237 00000220                                 L45:
   238 00000220 8B 7D 08                        	MOV	EDI,DWORD [8+EBP]
   239 00000223 8B 45 D0                        	MOV	EAX,DWORD [-48+EBP]
   240 00000226 8B 5E 0C                        	MOV	EBX,DWORD [12+ESI]
   241 00000229 0F AF 47 08                     	IMUL	EAX,DWORD [8+EDI]
   242 0000022D 01 D3                           	ADD	EBX,EDX
   243 0000022F 8B 7D D8                        	MOV	EDI,DWORD [-40+EBP]
   244 00000232 01 C3                           	ADD	EBX,EAX
   245 00000234 42                              	INC	EDX
   246 00000235 8A 45 DF                        	MOV	AL,BYTE [-33+EBP]
   247 00000238 88 04 3B                        	MOV	BYTE [EBX+EDI*1],AL
   248 0000023B 3B 55 E8                        	CMP	EDX,DWORD [-24+EBP]
   249 0000023E 7C E0                           	JL	L45
   250 00000240                                 L64:
   251 00000240 41                              	INC	ECX
   252 00000241 3B 4D E4                        	CMP	ECX,DWORD [-28+EBP]
   253 00000244 7C CA                           	JL	L46
   254 00000246 EB A9                           	JMP	L30
   255 00000248                                 L71:
   256 00000248 31 C9                           	XOR	ECX,ECX
   257 0000024A E9 FFFFFF37                     	JMP	L33
   258 0000024F                                 L70:
   259 0000024F C7 45 EC 00000000               	MOV	DWORD [-20+EBP],0
   260 00000256 E9 FFFFFF23                     	JMP	L32
   261 0000025B                                 L69:
   262 0000025B C7 45 10 00000000               	MOV	DWORD [16+EBP],0
   263 00000262 E9 FFFFFE9C                     	JMP	L25
   264 00000267                                 L68:
   265 00000267 C7 45 0C 00000000               	MOV	DWORD [12+EBP],0
   266 0000026E E9 FFFFFE86                     	JMP	L24
   267 00000273                                 	GLOBAL	_sheet_refreshsub
   268 00000273                                 _sheet_refreshsub:
   269 00000273 55                              	PUSH	EBP
   270 00000274 89 E5                           	MOV	EBP,ESP
   271 00000276 57                              	PUSH	EDI
   272 00000277 56                              	PUSH	ESI
   273 00000278 53                              	PUSH	EBX
   274 00000279 83 EC 2C                        	SUB	ESP,44
   275 0000027C 8B 45 08                        	MOV	EAX,DWORD [8+EBP]
   276 0000027F 8B 55 08                        	MOV	EDX,DWORD [8+EBP]
   277 00000282 83 7D 0C 00                     	CMP	DWORD [12+EBP],0
   278 00000286 8B 00                           	MOV	EAX,DWORD [EAX]
   279 00000288 8B 52 04                        	MOV	EDX,DWORD [4+EDX]
   280 0000028B 89 45 DC                        	MOV	DWORD [-36+EBP],EAX
   281 0000028E 89 55 D8                        	MOV	DWORD [-40+EBP],EDX
   282 00000291 0F 88 00000133                  	JS	L104
   283 00000297                                 L74:
   284 00000297 83 7D 10 00                     	CMP	DWORD [16+EBP],0
   285 0000029B 0F 88 0000011D                  	JS	L105
   286 000002A1                                 L75:
   287 000002A1 8B 75 08                        	MOV	ESI,DWORD [8+EBP]
   288 000002A4 8B 46 08                        	MOV	EAX,DWORD [8+ESI]
   289 000002A7 39 45 14                        	CMP	DWORD [20+EBP],EAX
   290 000002AA 7E 03                           	JLE	L76
   291 000002AC 89 45 14                        	MOV	DWORD [20+EBP],EAX
   292 000002AF                                 L76:
   293 000002AF 8B 7D 08                        	MOV	EDI,DWORD [8+EBP]
   294 000002B2 8B 47 0C                        	MOV	EAX,DWORD [12+EDI]
   295 000002B5 39 45 18                        	CMP	DWORD [24+EBP],EAX
   296 000002B8 7E 03                           	JLE	L77
   297 000002BA 89 45 18                        	MOV	DWORD [24+EBP],EAX
   298 000002BD                                 L77:
   299 000002BD 8B 45 1C                        	MOV	EAX,DWORD [28+EBP]
   300 000002C0 8B 55 20                        	MOV	EDX,DWORD [32+EBP]
   301 000002C3 89 45 F0                        	MOV	DWORD [-16+EBP],EAX
   302 000002C6 39 D0                           	CMP	EAX,EDX
   303 000002C8 0F 8F 000000BC                  	JG	L99
   304 000002CE                                 L97:
   305 000002CE 8B 7D 08                        	MOV	EDI,DWORD [8+EBP]
   306 000002D1 8B 75 F0                        	MOV	ESI,DWORD [-16+EBP]
   307 000002D4 8B 4D 10                        	MOV	ECX,DWORD [16+EBP]
   308 000002D7 8B 5C B7 14                     	MOV	EBX,DWORD [20+EDI+ESI*4]
   309 000002DB 8B 75 14                        	MOV	ESI,DWORD [20+EBP]
   310 000002DE 8B 03                           	MOV	EAX,DWORD [EBX]
   311 000002E0 8B 53 10                        	MOV	EDX,DWORD [16+EBX]
   312 000002E3 89 45 E0                        	MOV	DWORD [-32+EBP],EAX
   313 000002E6 29 D1                           	SUB	ECX,EDX
   314 000002E8 89 D8                           	MOV	EAX,EBX
   315 000002EA 29 F8                           	SUB	EAX,EDI
   316 000002EC 8B 7D 18                        	MOV	EDI,DWORD [24+EBP]
   317 000002EF 2D 00000414                     	SUB	EAX,1044
   318 000002F4 29 D7                           	SUB	EDI,EDX
   319 000002F6 C1 F8 03                        	SAR	EAX,3
   320 000002F9 8B 55 0C                        	MOV	EDX,DWORD [12+EBP]
   321 000002FC 69 C0 CCCCCCCD                  	IMUL	EAX,EAX,-858993459
   322 00000302 88 45 D7                        	MOV	BYTE [-41+EBP],AL
   323 00000305 89 7D C8                        	MOV	DWORD [-56+EBP],EDI
   324 00000308 8B 43 0C                        	MOV	EAX,DWORD [12+EBX]
   325 0000030B 29 C6                           	SUB	ESI,EAX
   326 0000030D 29 C2                           	SUB	EDX,EAX
   327 0000030F 89 75 E4                        	MOV	DWORD [-28+EBP],ESI
   328 00000312 89 55 E8                        	MOV	DWORD [-24+EBP],EDX
   329 00000315 0F 88 00000097                  	JS	L106
   330 0000031B                                 L82:
   331 0000031B 85 C9                           	TEST	ECX,ECX
   332 0000031D 0F 88 00000088                  	JS	L107
   333 00000323                                 L83:
   334 00000323 8B 43 04                        	MOV	EAX,DWORD [4+EBX]
   335 00000326 39 45 E4                        	CMP	DWORD [-28+EBP],EAX
   336 00000329 7E 03                           	JLE	L84
   337 0000032B 89 45 E4                        	MOV	DWORD [-28+EBP],EAX
   338 0000032E                                 L84:
   339 0000032E 8B 43 08                        	MOV	EAX,DWORD [8+EBX]
   340 00000331 39 45 C8                        	CMP	DWORD [-56+EBP],EAX
   341 00000334 7E 03                           	JLE	L85
   342 00000336 89 45 C8                        	MOV	DWORD [-56+EBP],EAX
   343 00000339                                 L85:
   344 00000339 89 CE                           	MOV	ESI,ECX
   345 0000033B 3B 4D C8                        	CMP	ECX,DWORD [-56+EBP]
   346 0000033E 7D 3B                           	JGE	L101
   347 00000340                                 L96:
   348 00000340 8B 7B 10                        	MOV	EDI,DWORD [16+EBX]
   349 00000343 8B 4D E8                        	MOV	ECX,DWORD [-24+EBP]
   350 00000346 01 F7                           	ADD	EDI,ESI
   351 00000348 3B 4D E4                        	CMP	ECX,DWORD [-28+EBP]
   352 0000034B 89 7D EC                        	MOV	DWORD [-20+EBP],EDI
   353 0000034E 7D 25                           	JGE	L103
   354 00000350                                 L95:
   355 00000350 8B 55 08                        	MOV	EDX,DWORD [8+EBP]
   356 00000353 8B 7D EC                        	MOV	EDI,DWORD [-20+EBP]
   357 00000356 8B 43 0C                        	MOV	EAX,DWORD [12+EBX]
   358 00000359 0F AF 7A 08                     	IMUL	EDI,DWORD [8+EDX]
   359 0000035D 01 C8                           	ADD	EAX,ECX
   360 0000035F 8A 55 D7                        	MOV	DL,BYTE [-41+EBP]
   361 00000362 01 F8                           	ADD	EAX,EDI
   362 00000364 8B 7D D8                        	MOV	EDI,DWORD [-40+EBP]
   363 00000367 89 45 CC                        	MOV	DWORD [-52+EBP],EAX
   364 0000036A 38 14 38                        	CMP	BYTE [EAX+EDI*1],DL
   365 0000036D 74 23                           	JE	L108
   366 0000036F                                 L92:
   367 0000036F 41                              	INC	ECX
   368 00000370 3B 4D E4                        	CMP	ECX,DWORD [-28+EBP]
   369 00000373 7C DB                           	JL	L95
   370 00000375                                 L103:
   371 00000375 46                              	INC	ESI
   372 00000376 3B 75 C8                        	CMP	ESI,DWORD [-56+EBP]
   373 00000379 7C C5                           	JL	L96
   374 0000037B                                 L101:
   375 0000037B 8B 75 20                        	MOV	ESI,DWORD [32+EBP]
   376 0000037E FF 45 F0                        	INC	DWORD [-16+EBP]
   377 00000381 39 75 F0                        	CMP	DWORD [-16+EBP],ESI
   378 00000384 0F 8E FFFFFF44                  	JLE	L97
   379 0000038A                                 L99:
   380 0000038A 83 C4 2C                        	ADD	ESP,44
   381 0000038D 5B                              	POP	EBX
   382 0000038E 5E                              	POP	ESI
   383 0000038F 5F                              	POP	EDI
   384 00000390 5D                              	POP	EBP
   385 00000391 C3                              	RET
   386 00000392                                 L108:
   387 00000392 89 F0                           	MOV	EAX,ESI
   388 00000394 8B 55 E0                        	MOV	EDX,DWORD [-32+EBP]
   389 00000397 0F AF 43 04                     	IMUL	EAX,DWORD [4+EBX]
   390 0000039B 01 C8                           	ADD	EAX,ECX
   391 0000039D 8B 7D DC                        	MOV	EDI,DWORD [-36+EBP]
   392 000003A0 8A 04 10                        	MOV	AL,BYTE [EAX+EDX*1]
   393 000003A3 8B 55 CC                        	MOV	EDX,DWORD [-52+EBP]
   394 000003A6 88 04 3A                        	MOV	BYTE [EDX+EDI*1],AL
   395 000003A9 EB C4                           	JMP	L92
   396 000003AB                                 L107:
   397 000003AB 31 C9                           	XOR	ECX,ECX
   398 000003AD E9 FFFFFF71                     	JMP	L83
   399 000003B2                                 L106:
   400 000003B2 C7 45 E8 00000000               	MOV	DWORD [-24+EBP],0
   401 000003B9 E9 FFFFFF5D                     	JMP	L82
   402 000003BE                                 L105:
   403 000003BE C7 45 10 00000000               	MOV	DWORD [16+EBP],0
   404 000003C5 E9 FFFFFED7                     	JMP	L75
   405 000003CA                                 L104:
   406 000003CA C7 45 0C 00000000               	MOV	DWORD [12+EBP],0
   407 000003D1 E9 FFFFFEC1                     	JMP	L74
   408 000003D6                                 	GLOBAL	_sheet_updown
   409 000003D6                                 _sheet_updown:
   410 000003D6 55                              	PUSH	EBP
   411 000003D7 89 E5                           	MOV	EBP,ESP
   412 000003D9 57                              	PUSH	EDI
   413 000003DA 56                              	PUSH	ESI
   414 000003DB 53                              	PUSH	EBX
   415 000003DC 51                              	PUSH	ECX
   416 000003DD 8B 7D 08                        	MOV	EDI,DWORD [8+EBP]
   417 000003E0 8B 5D 0C                        	MOV	EBX,DWORD [12+EBP]
   418 000003E3 8B 77 20                        	MOV	ESI,DWORD [32+EDI]
   419 000003E6 8B 47 18                        	MOV	EAX,DWORD [24+EDI]
   420 000003E9 89 45 F0                        	MOV	DWORD [-16+EBP],EAX
   421 000003EC 8B 46 10                        	MOV	EAX,DWORD [16+ESI]
   422 000003EF 40                              	INC	EAX
   423 000003F0 39 C3                           	CMP	EBX,EAX
   424 000003F2 7E 02                           	JLE	L110
   425 000003F4 89 C3                           	MOV	EBX,EAX
   426 000003F6                                 L110:
   427 000003F6 83 FB FF                        	CMP	EBX,-1
   428 000003F9 7D 03                           	JGE	L111
   429 000003FB 83 CB FF                        	OR	EBX,-1
   430 000003FE                                 L111:
   431 000003FE 89 5F 18                        	MOV	DWORD [24+EDI],EBX
   432 00000401 39 5D F0                        	CMP	DWORD [-16+EBP],EBX
   433 00000404 0F 8E 000000A8                  	JLE	L112
   434 0000040A 85 DB                           	TEST	EBX,EBX
   435 0000040C 78 5C                           	JS	L113
   436 0000040E 8B 4D F0                        	MOV	ECX,DWORD [-16+EBP]
   437 00000411                                 L118:
   438 00000411 8B 44 8E 10                     	MOV	EAX,DWORD [16+ESI+ECX*4]
   439 00000415 89 44 8E 14                     	MOV	DWORD [20+ESI+ECX*4],EAX
   440 00000419 89 48 18                        	MOV	DWORD [24+EAX],ECX
   441 0000041C 49                              	DEC	ECX
   442 0000041D 39 D9                           	CMP	ECX,EBX
   443 0000041F 7F F0                           	JG	L118
   444 00000421 89 7C 9E 14                     	MOV	DWORD [20+ESI+EBX*4],EDI
   445 00000425 43                              	INC	EBX
   446 00000426 53                              	PUSH	EBX
   447 00000427 8B 4F 10                        	MOV	ECX,DWORD [16+EDI]
   448 0000042A 89 C8                           	MOV	EAX,ECX
   449 0000042C 03 47 08                        	ADD	EAX,DWORD [8+EDI]
   450 0000042F 50                              	PUSH	EAX
   451 00000430 8B 57 0C                        	MOV	EDX,DWORD [12+EDI]
   452 00000433 89 D0                           	MOV	EAX,EDX
   453 00000435 03 47 04                        	ADD	EAX,DWORD [4+EDI]
   454 00000438 50                              	PUSH	EAX
   455 00000439 51                              	PUSH	ECX
   456 0000043A 52                              	PUSH	EDX
   457 0000043B 56                              	PUSH	ESI
   458 0000043C E8 FFFFFC9C                     	CALL	_sheet_refreshmap
   459 00000441 FF 75 F0                        	PUSH	DWORD [-16+EBP]
   460 00000444                                 L148:
   461 00000444 53                              	PUSH	EBX
   462 00000445                                 L147:
   463 00000445 8B 4F 10                        	MOV	ECX,DWORD [16+EDI]
   464 00000448 89 C8                           	MOV	EAX,ECX
   465 0000044A 03 47 08                        	ADD	EAX,DWORD [8+EDI]
   466 0000044D 50                              	PUSH	EAX
   467 0000044E 8B 57 0C                        	MOV	EDX,DWORD [12+EDI]
   468 00000451 89 D0                           	MOV	EAX,EDX
   469 00000453 03 47 04                        	ADD	EAX,DWORD [4+EDI]
   470 00000456 50                              	PUSH	EAX
   471 00000457 51                              	PUSH	ECX
   472 00000458 52                              	PUSH	EDX
   473 00000459 56                              	PUSH	ESI
   474 0000045A E8 FFFFFE14                     	CALL	_sheet_refreshsub
   475 0000045F 83 C4 34                        	ADD	ESP,52
   476 00000462                                 L109:
   477 00000462 8D 65 F4                        	LEA	ESP,DWORD [-12+EBP]
   478 00000465 5B                              	POP	EBX
   479 00000466 5E                              	POP	ESI
   480 00000467 5F                              	POP	EDI
   481 00000468 5D                              	POP	EBP
   482 00000469 C3                              	RET
   483 0000046A                                 L113:
   484 0000046A 8B 46 10                        	MOV	EAX,DWORD [16+ESI]
   485 0000046D 3B 45 F0                        	CMP	EAX,DWORD [-16+EBP]
   486 00000470 7E 18                           	JLE	L120
   487 00000472 8B 4D F0                        	MOV	ECX,DWORD [-16+EBP]
   488 00000475 39 C1                           	CMP	ECX,EAX
   489 00000477 7D 11                           	JGE	L120
   490 00000479                                 L125:
   491 00000479 8B 44 8E 18                     	MOV	EAX,DWORD [24+ESI+ECX*4]
   492 0000047D 89 44 8E 14                     	MOV	DWORD [20+ESI+ECX*4],EAX
   493 00000481 89 48 18                        	MOV	DWORD [24+EAX],ECX
   494 00000484 41                              	INC	ECX
   495 00000485 3B 4E 10                        	CMP	ECX,DWORD [16+ESI]
   496 00000488 7C EF                           	JL	L125
   497 0000048A                                 L120:
   498 0000048A FF 4E 10                        	DEC	DWORD [16+ESI]
   499 0000048D 6A 00                           	PUSH	0
   500 0000048F 8B 4F 10                        	MOV	ECX,DWORD [16+EDI]
   501 00000492 89 C8                           	MOV	EAX,ECX
   502 00000494 03 47 08                        	ADD	EAX,DWORD [8+EDI]
   503 00000497 50                              	PUSH	EAX
   504 00000498 8B 57 0C                        	MOV	EDX,DWORD [12+EDI]
   505 0000049B 89 D0                           	MOV	EAX,EDX
   506 0000049D 03 47 04                        	ADD	EAX,DWORD [4+EDI]
   507 000004A0 50                              	PUSH	EAX
   508 000004A1 51                              	PUSH	ECX
   509 000004A2 52                              	PUSH	EDX
   510 000004A3 56                              	PUSH	ESI
   511 000004A4 E8 FFFFFC34                     	CALL	_sheet_refreshmap
   512 000004A9 8B 45 F0                        	MOV	EAX,DWORD [-16+EBP]
   513 000004AC 48                              	DEC	EAX
   514 000004AD 50                              	PUSH	EAX
   515 000004AE 6A 00                           	PUSH	0
   516 000004B0 EB 93                           	JMP	L147
   517 000004B2                                 L112:
   518 000004B2 39 5D F0                        	CMP	DWORD [-16+EBP],EBX
   519 000004B5 7D AB                           	JGE	L109
   520 000004B7 83 7D F0 00                     	CMP	DWORD [-16+EBP],0
   521 000004BB 78 3C                           	JS	L128
   522 000004BD 8B 4D F0                        	MOV	ECX,DWORD [-16+EBP]
   523 000004C0 39 D9                           	CMP	ECX,EBX
   524 000004C2 7D 10                           	JGE	L144
   525 000004C4                                 L133:
   526 000004C4 8B 44 8E 18                     	MOV	EAX,DWORD [24+ESI+ECX*4]
   527 000004C8 89 44 8E 14                     	MOV	DWORD [20+ESI+ECX*4],EAX
   528 000004CC 89 48 18                        	MOV	DWORD [24+EAX],ECX
   529 000004CF 41                              	INC	ECX
   530 000004D0 39 D9                           	CMP	ECX,EBX
   531 000004D2 7C F0                           	JL	L133
   532 000004D4                                 L144:
   533 000004D4 89 7C 9E 14                     	MOV	DWORD [20+ESI+EBX*4],EDI
   534 000004D8                                 L134:
   535 000004D8 53                              	PUSH	EBX
   536 000004D9 8B 4F 10                        	MOV	ECX,DWORD [16+EDI]
   537 000004DC 89 C8                           	MOV	EAX,ECX
   538 000004DE 03 47 08                        	ADD	EAX,DWORD [8+EDI]
   539 000004E1 50                              	PUSH	EAX
   540 000004E2 8B 57 0C                        	MOV	EDX,DWORD [12+EDI]
   541 000004E5 89 D0                           	MOV	EAX,EDX
   542 000004E7 03 47 04                        	ADD	EAX,DWORD [4+EDI]
   543 000004EA 50                              	PUSH	EAX
   544 000004EB 51                              	PUSH	ECX
   545 000004EC 52                              	PUSH	EDX
   546 000004ED 56                              	PUSH	ESI
   547 000004EE E8 FFFFFBEA                     	CALL	_sheet_refreshmap
   548 000004F3 53                              	PUSH	EBX
   549 000004F4 E9 FFFFFF4B                     	JMP	L148
   550 000004F9                                 L128:
   551 000004F9 8B 4E 10                        	MOV	ECX,DWORD [16+ESI]
   552 000004FC 39 D9                           	CMP	ECX,EBX
   553 000004FE 7C 13                           	JL	L146
   554 00000500                                 L139:
   555 00000500 8B 54 8E 14                     	MOV	EDX,DWORD [20+ESI+ECX*4]
   556 00000504 8D 41 01                        	LEA	EAX,DWORD [1+ECX]
   557 00000507 89 54 8E 18                     	MOV	DWORD [24+ESI+ECX*4],EDX
   558 0000050B 49                              	DEC	ECX
   559 0000050C 89 42 18                        	MOV	DWORD [24+EDX],EAX
   560 0000050F 39 D9                           	CMP	ECX,EBX
   561 00000511 7D ED                           	JGE	L139
   562 00000513                                 L146:
   563 00000513 89 7C 9E 14                     	MOV	DWORD [20+ESI+EBX*4],EDI
   564 00000517 FF 46 10                        	INC	DWORD [16+ESI]
   565 0000051A EB BC                           	JMP	L134
   566 0000051C                                 	GLOBAL	_sheet_refresh
   567 0000051C                                 _sheet_refresh:
   568 0000051C 55                              	PUSH	EBP
   569 0000051D 89 E5                           	MOV	EBP,ESP
   570 0000051F 53                              	PUSH	EBX
   571 00000520 8B 5D 08                        	MOV	EBX,DWORD [8+EBP]
   572 00000523 8B 43 18                        	MOV	EAX,DWORD [24+EBX]
   573 00000526 85 C0                           	TEST	EAX,EAX
   574 00000528 78 27                           	JS	L149
   575 0000052A 50                              	PUSH	EAX
   576 0000052B 50                              	PUSH	EAX
   577 0000052C 8B 4B 10                        	MOV	ECX,DWORD [16+EBX]
   578 0000052F 89 C8                           	MOV	EAX,ECX
   579 00000531 03 4D 10                        	ADD	ECX,DWORD [16+EBP]
   580 00000534 03 45 18                        	ADD	EAX,DWORD [24+EBP]
   581 00000537 50                              	PUSH	EAX
   582 00000538 8B 53 0C                        	MOV	EDX,DWORD [12+EBX]
   583 0000053B 89 D0                           	MOV	EAX,EDX
   584 0000053D 03 55 0C                        	ADD	EDX,DWORD [12+EBP]
   585 00000540 03 45 14                        	ADD	EAX,DWORD [20+EBP]
   586 00000543 50                              	PUSH	EAX
   587 00000544 51                              	PUSH	ECX
   588 00000545 52                              	PUSH	EDX
   589 00000546 FF 73 20                        	PUSH	DWORD [32+EBX]
   590 00000549 E8 FFFFFD25                     	CALL	_sheet_refreshsub
   591 0000054E 83 C4 1C                        	ADD	ESP,28
   592 00000551                                 L149:
   593 00000551 8B 5D FC                        	MOV	EBX,DWORD [-4+EBP]
   594 00000554 C9                              	LEAVE
   595 00000555 C3                              	RET
   596 00000556                                 	GLOBAL	_sheet_slide
   597 00000556                                 _sheet_slide:
   598 00000556 55                              	PUSH	EBP
   599 00000557 89 E5                           	MOV	EBP,ESP
   600 00000559 57                              	PUSH	EDI
   601 0000055A 56                              	PUSH	ESI
   602 0000055B 53                              	PUSH	EBX
   603 0000055C 53                              	PUSH	EBX
   604 0000055D 8B 5D 08                        	MOV	EBX,DWORD [8+EBP]
   605 00000560 8B 43 20                        	MOV	EAX,DWORD [32+EBX]
   606 00000563 8B 7B 0C                        	MOV	EDI,DWORD [12+EBX]
   607 00000566 89 45 F0                        	MOV	DWORD [-16+EBP],EAX
   608 00000569 8B 73 10                        	MOV	ESI,DWORD [16+EBX]
   609 0000056C 8B 45 0C                        	MOV	EAX,DWORD [12+EBP]
   610 0000056F 89 43 0C                        	MOV	DWORD [12+EBX],EAX
   611 00000572 8B 45 10                        	MOV	EAX,DWORD [16+EBP]
   612 00000575 89 43 10                        	MOV	DWORD [16+EBX],EAX
   613 00000578 83 7B 18 00                     	CMP	DWORD [24+EBX],0
   614 0000057C 78 7C                           	JS	L151
   615 0000057E 6A 00                           	PUSH	0
   616 00000580 89 F0                           	MOV	EAX,ESI
   617 00000582 03 43 08                        	ADD	EAX,DWORD [8+EBX]
   618 00000585 50                              	PUSH	EAX
   619 00000586 89 F8                           	MOV	EAX,EDI
   620 00000588 03 43 04                        	ADD	EAX,DWORD [4+EBX]
   621 0000058B 50                              	PUSH	EAX
   622 0000058C 56                              	PUSH	ESI
   623 0000058D 57                              	PUSH	EDI
   624 0000058E FF 75 F0                        	PUSH	DWORD [-16+EBP]
   625 00000591 E8 FFFFFB47                     	CALL	_sheet_refreshmap
   626 00000596 8B 45 10                        	MOV	EAX,DWORD [16+EBP]
   627 00000599 FF 73 18                        	PUSH	DWORD [24+EBX]
   628 0000059C 03 43 08                        	ADD	EAX,DWORD [8+EBX]
   629 0000059F 50                              	PUSH	EAX
   630 000005A0 8B 45 0C                        	MOV	EAX,DWORD [12+EBP]
   631 000005A3 03 43 04                        	ADD	EAX,DWORD [4+EBX]
   632 000005A6 50                              	PUSH	EAX
   633 000005A7 FF 75 10                        	PUSH	DWORD [16+EBP]
   634 000005AA FF 75 0C                        	PUSH	DWORD [12+EBP]
   635 000005AD FF 75 F0                        	PUSH	DWORD [-16+EBP]
   636 000005B0 E8 FFFFFB28                     	CALL	_sheet_refreshmap
   637 000005B5 8B 43 18                        	MOV	EAX,DWORD [24+EBX]
   638 000005B8 83 C4 30                        	ADD	ESP,48
   639 000005BB 48                              	DEC	EAX
   640 000005BC 50                              	PUSH	EAX
   641 000005BD 89 F0                           	MOV	EAX,ESI
   642 000005BF 6A 00                           	PUSH	0
   643 000005C1 03 43 08                        	ADD	EAX,DWORD [8+EBX]
   644 000005C4 50                              	PUSH	EAX
   645 000005C5 89 F8                           	MOV	EAX,EDI
   646 000005C7 03 43 04                        	ADD	EAX,DWORD [4+EBX]
   647 000005CA 50                              	PUSH	EAX
   648 000005CB 56                              	PUSH	ESI
   649 000005CC 57                              	PUSH	EDI
   650 000005CD FF 75 F0                        	PUSH	DWORD [-16+EBP]
   651 000005D0 E8 FFFFFC9E                     	CALL	_sheet_refreshsub
   652 000005D5 8B 45 10                        	MOV	EAX,DWORD [16+EBP]
   653 000005D8 FF 73 18                        	PUSH	DWORD [24+EBX]
   654 000005DB FF 73 18                        	PUSH	DWORD [24+EBX]
   655 000005DE 03 43 08                        	ADD	EAX,DWORD [8+EBX]
   656 000005E1 50                              	PUSH	EAX
   657 000005E2 8B 45 0C                        	MOV	EAX,DWORD [12+EBP]
   658 000005E5 03 43 04                        	ADD	EAX,DWORD [4+EBX]
   659 000005E8 50                              	PUSH	EAX
   660 000005E9 FF 75 10                        	PUSH	DWORD [16+EBP]
   661 000005EC FF 75 0C                        	PUSH	DWORD [12+EBP]
   662 000005EF FF 75 F0                        	PUSH	DWORD [-16+EBP]
   663 000005F2 E8 FFFFFC7C                     	CALL	_sheet_refreshsub
   664 000005F7 83 C4 38                        	ADD	ESP,56
   665 000005FA                                 L151:
   666 000005FA 8D 65 F4                        	LEA	ESP,DWORD [-12+EBP]
   667 000005FD 5B                              	POP	EBX
   668 000005FE 5E                              	POP	ESI
   669 000005FF 5F                              	POP	EDI
   670 00000600 5D                              	POP	EBP
   671 00000601 C3                              	RET
   672 00000602                                 	GLOBAL	_sheet_free
   673 00000602                                 _sheet_free:
   674 00000602 55                              	PUSH	EBP
   675 00000603 89 E5                           	MOV	EBP,ESP
   676 00000605 53                              	PUSH	EBX
   677 00000606 8B 5D 08                        	MOV	EBX,DWORD [8+EBP]
   678 00000609 83 7B 18 00                     	CMP	DWORD [24+EBX],0
   679 0000060D 78 0A                           	JS	L154
   680 0000060F 6A FF                           	PUSH	-1
   681 00000611 53                              	PUSH	EBX
   682 00000612 E8 FFFFFDBF                     	CALL	_sheet_updown
   683 00000617 58                              	POP	EAX
   684 00000618 5A                              	POP	EDX
   685 00000619                                 L154:
   686 00000619 C7 43 1C 00000000               	MOV	DWORD [28+EBX],0
   687 00000620 8B 5D FC                        	MOV	EBX,DWORD [-4+EBP]
   688 00000623 C9                              	LEAVE
   689 00000624 C3                              	RET
