     1 00000000                                 [FORMAT "WCOFF"]
     2 00000000                                 [INSTRSET "i486p"]
     3 00000000                                 [OPTIMIZE 1]
     4 00000000                                 [OPTION 1]
     5 00000000                                 [BITS 32]
     6 00000000                                 	EXTERN	_init_gdtidt
     7 00000000                                 	EXTERN	_init_pic
     8 00000000                                 	EXTERN	_io_sti
     9 00000000                                 	EXTERN	_fifo32_init
    10 00000000                                 	EXTERN	_init_pit
    11 00000000                                 	EXTERN	_init_keyboard
    12 00000000                                 	EXTERN	_enable_mouse
    13 00000000                                 	EXTERN	_io_out8
    14 00000000                                 	EXTERN	_memtest
    15 00000000                                 	EXTERN	_memman_init
    16 00000000                                 	EXTERN	_memman_free
    17 00000000                                 	EXTERN	_init_palette
    18 00000000                                 	EXTERN	_shtctl_init
    19 00000000                                 	EXTERN	_task_init
    20 00000000                                 	EXTERN	_task_run
    21 00000000                                 	EXTERN	_sheet_alloc
    22 00000000                                 	EXTERN	_memman_alloc_4k
    23 00000000                                 	EXTERN	_sheet_setbuf
    24 00000000                                 	EXTERN	_init_screen8
    25 00000000                                 	EXTERN	_make_window8
    26 00000000                                 	EXTERN	_make_textbox8
    27 00000000                                 	EXTERN	_task_alloc
    28 00000000                                 	EXTERN	_console_task
    29 00000000                                 	EXTERN	_timer_alloc
    30 00000000                                 	EXTERN	_timer_init
    31 00000000                                 	EXTERN	_timer_settime
    32 00000000                                 	EXTERN	_init_mouse_cursor8
    33 00000000                                 	EXTERN	_sheet_slide
    34 00000000                                 	EXTERN	_sheet_updown
    35 00000000                                 	EXTERN	_fifo32_put
    36 00000000                                 	EXTERN	_fifo32_status
    37 00000000                                 	EXTERN	_io_cli
    38 00000000                                 	EXTERN	_fifo32_get
    39 00000000                                 	EXTERN	_boxfill8
    40 00000000                                 	EXTERN	_sheet_refresh
    41 00000000                                 	EXTERN	_mouse_decode
    42 00000000                                 	EXTERN	_cons_putstr0
    43 00000000                                 	EXTERN	_asm_end_app
    44 00000000                                 	EXTERN	_keytable0.0
    45 00000000                                 	EXTERN	_wait_KBC_sendready
    46 00000000                                 	EXTERN	_putfonts8_asc_sht
    47 00000000                                 	EXTERN	_keytable1.1
    48 00000000                                 	EXTERN	_task_sleep
    49 00000000                                 	EXTERN	_change_wtitle8
    50 00000000                                 [FILE "bootpack.c"]
    51                                          [SECTION .data]
    52 00000000                                 _keytable0.0:
    53 00000000 00                              	DB	0
    54 00000001 00                              	DB	0
    55 00000002 31                              	DB	49
    56 00000003 32                              	DB	50
    57 00000004 33                              	DB	51
    58 00000005 34                              	DB	52
    59 00000006 35                              	DB	53
    60 00000007 36                              	DB	54
    61 00000008 37                              	DB	55
    62 00000009 38                              	DB	56
    63 0000000A 39                              	DB	57
    64 0000000B 30                              	DB	48
    65 0000000C 2D                              	DB	45
    66 0000000D 5E                              	DB	94
    67 0000000E 00                              	DB	0
    68 0000000F 00                              	DB	0
    69 00000010 51                              	DB	81
    70 00000011 57                              	DB	87
    71 00000012 45                              	DB	69
    72 00000013 52                              	DB	82
    73 00000014 54                              	DB	84
    74 00000015 59                              	DB	89
    75 00000016 55                              	DB	85
    76 00000017 49                              	DB	73
    77 00000018 4F                              	DB	79
    78 00000019 50                              	DB	80
    79 0000001A 40                              	DB	64
    80 0000001B 5B                              	DB	91
    81 0000001C 00                              	DB	0
    82 0000001D 00                              	DB	0
    83 0000001E 41                              	DB	65
    84 0000001F 53                              	DB	83
    85 00000020 44                              	DB	68
    86 00000021 46                              	DB	70
    87 00000022 47                              	DB	71
    88 00000023 48                              	DB	72
    89 00000024 4A                              	DB	74
    90 00000025 4B                              	DB	75
    91 00000026 4C                              	DB	76
    92 00000027 3B                              	DB	59
    93 00000028 3A                              	DB	58
    94 00000029 00                              	DB	0
    95 0000002A 00                              	DB	0
    96 0000002B 5D                              	DB	93
    97 0000002C 5A                              	DB	90
    98 0000002D 58                              	DB	88
    99 0000002E 43                              	DB	67
   100 0000002F 56                              	DB	86
   101 00000030 42                              	DB	66
   102 00000031 4E                              	DB	78
   103 00000032 4D                              	DB	77
   104 00000033 2C                              	DB	44
   105 00000034 2E                              	DB	46
   106 00000035 2F                              	DB	47
   107 00000036 00                              	DB	0
   108 00000037 2A                              	DB	42
   109 00000038 00                              	DB	0
   110 00000039 20                              	DB	32
   111 0000003A 00                              	DB	0
   112 0000003B 00                              	DB	0
   113 0000003C 00                              	DB	0
   114 0000003D 00                              	DB	0
   115 0000003E 00                              	DB	0
   116 0000003F 00                              	DB	0
   117 00000040 00                              	DB	0
   118 00000041 00                              	DB	0
   119 00000042 00                              	DB	0
   120 00000043 00                              	DB	0
   121 00000044 00                              	DB	0
   122 00000045 00                              	DB	0
   123 00000046 00                              	DB	0
   124 00000047 37                              	DB	55
   125 00000048 38                              	DB	56
   126 00000049 39                              	DB	57
   127 0000004A 2D                              	DB	45
   128 0000004B 34                              	DB	52
   129 0000004C 35                              	DB	53
   130 0000004D 36                              	DB	54
   131 0000004E 2B                              	DB	43
   132 0000004F 31                              	DB	49
   133 00000050 32                              	DB	50
   134 00000051 33                              	DB	51
   135 00000052 30                              	DB	48
   136 00000053 2E                              	DB	46
   137 00000054 00                              	DB	0
   138 00000055 00                              	DB	0
   139 00000056 00                              	DB	0
   140 00000057 00                              	DB	0
   141 00000058 00                              	DB	0
   142 00000059 00                              	DB	0
   143 0000005A 00                              	DB	0
   144 0000005B 00                              	DB	0
   145 0000005C 00                              	DB	0
   146 0000005D 00                              	DB	0
   147 0000005E 00                              	DB	0
   148 0000005F 00                              	DB	0
   149 00000060 00                              	DB	0
   150 00000061 00                              	DB	0
   151 00000062 00                              	DB	0
   152 00000063 00                              	DB	0
   153 00000064 00                              	DB	0
   154 00000065 00                              	DB	0
   155 00000066 00                              	DB	0
   156 00000067 00                              	DB	0
   157 00000068 00                              	DB	0
   158 00000069 00                              	DB	0
   159 0000006A 00                              	DB	0
   160 0000006B 00                              	DB	0
   161 0000006C 00                              	DB	0
   162 0000006D 00                              	DB	0
   163 0000006E 00                              	DB	0
   164 0000006F 00                              	DB	0
   165 00000070 00                              	DB	0
   166 00000071 00                              	DB	0
   167 00000072 00                              	DB	0
   168 00000073 5C                              	DB	92
   169 00000074 00                              	DB	0
   170 00000075 00                              	DB	0
   171 00000076 00                              	DB	0
   172 00000077 00                              	DB	0
   173 00000078 00                              	DB	0
   174 00000079 00                              	DB	0
   175 0000007A 00                              	DB	0
   176 0000007B 00                              	DB	0
   177 0000007C 00                              	DB	0
   178 0000007D 5C                              	DB	92
   179 0000007E 00                              	DB	0
   180 0000007F 00                              	DB	0
   181 00000080                                 _keytable1.1:
   182 00000080 00                              	DB	0
   183 00000081 00                              	DB	0
   184 00000082 21                              	DB	33
   185 00000083 22                              	DB	34
   186 00000084 23                              	DB	35
   187 00000085 24                              	DB	36
   188 00000086 25                              	DB	37
   189 00000087 26                              	DB	38
   190 00000088 27                              	DB	39
   191 00000089 28                              	DB	40
   192 0000008A 29                              	DB	41
   193 0000008B 7E                              	DB	126
   194 0000008C 3D                              	DB	61
   195 0000008D 7E                              	DB	126
   196 0000008E 00                              	DB	0
   197 0000008F 00                              	DB	0
   198 00000090 51                              	DB	81
   199 00000091 57                              	DB	87
   200 00000092 45                              	DB	69
   201 00000093 52                              	DB	82
   202 00000094 54                              	DB	84
   203 00000095 59                              	DB	89
   204 00000096 55                              	DB	85
   205 00000097 49                              	DB	73
   206 00000098 4F                              	DB	79
   207 00000099 50                              	DB	80
   208 0000009A 60                              	DB	96
   209 0000009B 7B                              	DB	123
   210 0000009C 00                              	DB	0
   211 0000009D 00                              	DB	0
   212 0000009E 41                              	DB	65
   213 0000009F 53                              	DB	83
   214 000000A0 44                              	DB	68
   215 000000A1 46                              	DB	70
   216 000000A2 47                              	DB	71
   217 000000A3 48                              	DB	72
   218 000000A4 4A                              	DB	74
   219 000000A5 4B                              	DB	75
   220 000000A6 4C                              	DB	76
   221 000000A7 2B                              	DB	43
   222 000000A8 2A                              	DB	42
   223 000000A9 00                              	DB	0
   224 000000AA 00                              	DB	0
   225 000000AB 7D                              	DB	125
   226 000000AC 5A                              	DB	90
   227 000000AD 58                              	DB	88
   228 000000AE 43                              	DB	67
   229 000000AF 56                              	DB	86
   230 000000B0 42                              	DB	66
   231 000000B1 4E                              	DB	78
   232 000000B2 4D                              	DB	77
   233 000000B3 3C                              	DB	60
   234 000000B4 3E                              	DB	62
   235 000000B5 3F                              	DB	63
   236 000000B6 00                              	DB	0
   237 000000B7 2A                              	DB	42
   238 000000B8 00                              	DB	0
   239 000000B9 20                              	DB	32
   240 000000BA 00                              	DB	0
   241 000000BB 00                              	DB	0
   242 000000BC 00                              	DB	0
   243 000000BD 00                              	DB	0
   244 000000BE 00                              	DB	0
   245 000000BF 00                              	DB	0
   246 000000C0 00                              	DB	0
   247 000000C1 00                              	DB	0
   248 000000C2 00                              	DB	0
   249 000000C3 00                              	DB	0
   250 000000C4 00                              	DB	0
   251 000000C5 00                              	DB	0
   252 000000C6 00                              	DB	0
   253 000000C7 37                              	DB	55
   254 000000C8 38                              	DB	56
   255 000000C9 39                              	DB	57
   256 000000CA 2D                              	DB	45
   257 000000CB 34                              	DB	52
   258 000000CC 35                              	DB	53
   259 000000CD 36                              	DB	54
   260 000000CE 2B                              	DB	43
   261 000000CF 31                              	DB	49
   262 000000D0 32                              	DB	50
   263 000000D1 33                              	DB	51
   264 000000D2 30                              	DB	48
   265 000000D3 2E                              	DB	46
   266 000000D4 00                              	DB	0
   267 000000D5 00                              	DB	0
   268 000000D6 00                              	DB	0
   269 000000D7 00                              	DB	0
   270 000000D8 00                              	DB	0
   271 000000D9 00                              	DB	0
   272 000000DA 00                              	DB	0
   273 000000DB 00                              	DB	0
   274 000000DC 00                              	DB	0
   275 000000DD 00                              	DB	0
   276 000000DE 00                              	DB	0
   277 000000DF 00                              	DB	0
   278 000000E0 00                              	DB	0
   279 000000E1 00                              	DB	0
   280 000000E2 00                              	DB	0
   281 000000E3 00                              	DB	0
   282 000000E4 00                              	DB	0
   283 000000E5 00                              	DB	0
   284 000000E6 00                              	DB	0
   285 000000E7 00                              	DB	0
   286 000000E8 00                              	DB	0
   287 000000E9 00                              	DB	0
   288 000000EA 00                              	DB	0
   289 000000EB 00                              	DB	0
   290 000000EC 00                              	DB	0
   291 000000ED 00                              	DB	0
   292 000000EE 00                              	DB	0
   293 000000EF 00                              	DB	0
   294 000000F0 00                              	DB	0
   295 000000F1 00                              	DB	0
   296 000000F2 00                              	DB	0
   297 000000F3 5F                              	DB	95
   298 000000F4 00                              	DB	0
   299 000000F5 00                              	DB	0
   300 000000F6 00                              	DB	0
   301 000000F7 00                              	DB	0
   302 000000F8 00                              	DB	0
   303 000000F9 00                              	DB	0
   304 000000FA 00                              	DB	0
   305 000000FB 00                              	DB	0
   306 000000FC 00                              	DB	0
   307 000000FD 7C                              	DB	124
   308 000000FE 00                              	DB	0
   309 000000FF 00                              	DB	0
   310 00000100                                 LC0:
   311 00000100 63 6F 6E 73 6F 6C 65 00         	DB	"console",0x00
   312 00000108                                 LC1:
   313 00000108 74 61 73 6B 5F 61 00            	DB	"task_a",0x00
   314 0000010F                                 LC4:
   315 0000010F 0A 42 72 65 61 6B 28 6D 6F 75   	DB	0x0A,"Break(mouse) :",0x0A,0x00
       00000119 73 65 29 20 3A 0A 00 
   316 00000120                                 LC3:
   317 00000120 0A 42 72 65 61 6B 28 6B 65 79   	DB	0x0A,"Break(key) :",0x0A,0x00
       0000012A 29 20 3A 0A 00 
   318 0000012F                                 LC2:
   319 0000012F 20 00                           	DB	" ",0x00
   320                                          [SECTION .text]
   321 00000000                                 	GLOBAL	_HariMain
   322 00000000                                 _HariMain:
   323 00000000 55                              	PUSH	EBP
   324 00000001 89 E5                           	MOV	EBP,ESP
   325 00000003 57                              	PUSH	EDI
   326 00000004 56                              	PUSH	ESI
   327 00000005 53                              	PUSH	EBX
   328 00000006 8D 5D A4                        	LEA	EBX,DWORD [-92+EBP]
   329 00000009 81 EC 00000468                  	SUB	ESP,1128
   330 0000000F C7 85 FFFFFBAC 00000000         	MOV	DWORD [-1108+EBP],0
   331 00000019 A0 00000FF1                     	MOV	AL,BYTE [4081]
   332 0000001E C0 F8 04                        	SAR	AL,4
   333 00000021 89 C2                           	MOV	EDX,EAX
   334 00000023 83 E2 07                        	AND	EDX,7
   335 00000026 89 95 FFFFFBA8                  	MOV	DWORD [-1112+EBP],EDX
   336 0000002C C7 85 FFFFFBA4 FFFFFFFF         	MOV	DWORD [-1116+EBP],-1
   337 00000036 C7 85 FFFFFBA0 FFFFFFFF         	MOV	DWORD [-1120+EBP],-1
   338 00000040 C7 85 FFFFFB9C FFFFFFFF         	MOV	DWORD [-1124+EBP],-1
   339 0000004A C7 85 FFFFFB98 00000000         	MOV	DWORD [-1128+EBP],0
   340 00000054 E8 [00000000]                   	CALL	_init_gdtidt
   341 00000059 E8 [00000000]                   	CALL	_init_pic
   342 0000005E E8 [00000000]                   	CALL	_io_sti
   343 00000063 8D 85 FFFFFD84                  	LEA	EAX,DWORD [-636+EBP]
   344 00000069 6A 00                           	PUSH	0
   345 0000006B 50                              	PUSH	EAX
   346 0000006C 68 00000080                     	PUSH	128
   347 00000071 53                              	PUSH	EBX
   348 00000072 E8 [00000000]                   	CALL	_fifo32_init
   349 00000077 E8 [00000000]                   	CALL	_init_pit
   350 0000007C 68 00000100                     	PUSH	256
   351 00000081 53                              	PUSH	EBX
   352 00000082 E8 [00000000]                   	CALL	_init_keyboard
   353 00000087 8D 85 FFFFFCF4                  	LEA	EAX,DWORD [-780+EBP]
   354 0000008D 50                              	PUSH	EAX
   355 0000008E 68 00000200                     	PUSH	512
   356 00000093 53                              	PUSH	EBX
   357 00000094 E8 [00000000]                   	CALL	_enable_mouse
   358 00000099 83 C4 24                        	ADD	ESP,36
   359 0000009C 68 000000F8                     	PUSH	248
   360 000000A1 6A 21                           	PUSH	33
   361 000000A3 E8 [00000000]                   	CALL	_io_out8
   362 000000A8 68 000000EF                     	PUSH	239
   363 000000AD 68 000000A1                     	PUSH	161
   364 000000B2 E8 [00000000]                   	CALL	_io_out8
   365 000000B7 8D 85 FFFFFD04                  	LEA	EAX,DWORD [-764+EBP]
   366 000000BD 6A 00                           	PUSH	0
   367 000000BF 50                              	PUSH	EAX
   368 000000C0 8D 45 84                        	LEA	EAX,DWORD [-124+EBP]
   369 000000C3 6A 20                           	PUSH	32
   370 000000C5 50                              	PUSH	EAX
   371 000000C6 E8 [00000000]                   	CALL	_fifo32_init
   372 000000CB 83 C4 20                        	ADD	ESP,32
   373 000000CE 68 BFFFFFFF                     	PUSH	-1073741825
   374 000000D3 68 00400000                     	PUSH	4194304
   375 000000D8 E8 [00000000]                   	CALL	_memtest
   376 000000DD 68 003C0000                     	PUSH	3932160
   377 000000E2 89 85 FFFFFBC0                  	MOV	DWORD [-1088+EBP],EAX
   378 000000E8 E8 [00000000]                   	CALL	_memman_init
   379 000000ED 68 0009E000                     	PUSH	647168
   380 000000F2 68 00001000                     	PUSH	4096
   381 000000F7 68 003C0000                     	PUSH	3932160
   382 000000FC E8 [00000000]                   	CALL	_memman_free
   383 00000101 8B 85 FFFFFBC0                  	MOV	EAX,DWORD [-1088+EBP]
   384 00000107 2D 00400000                     	SUB	EAX,4194304
   385 0000010C 50                              	PUSH	EAX
   386 0000010D 68 00400000                     	PUSH	4194304
   387 00000112 68 003C0000                     	PUSH	3932160
   388 00000117 E8 [00000000]                   	CALL	_memman_free
   389 0000011C 83 C4 24                        	ADD	ESP,36
   390 0000011F E8 [00000000]                   	CALL	_init_palette
   391 00000124 0F BF 05 00000FF6               	MOVSX	EAX,WORD [4086]
   392 0000012B 50                              	PUSH	EAX
   393 0000012C 0F BF 05 00000FF4               	MOVSX	EAX,WORD [4084]
   394 00000133 50                              	PUSH	EAX
   395 00000134 FF 35 00000FF8                  	PUSH	DWORD [4088]
   396 0000013A 68 003C0000                     	PUSH	3932160
   397 0000013F E8 [00000000]                   	CALL	_shtctl_init
   398 00000144 68 003C0000                     	PUSH	3932160
   399 00000149 89 85 FFFFFBD8                  	MOV	DWORD [-1064+EBP],EAX
   400 0000014F E8 [00000000]                   	CALL	_task_init
   401 00000154 6A 02                           	PUSH	2
   402 00000156 6A 01                           	PUSH	1
   403 00000158 89 85 FFFFFBB4                  	MOV	DWORD [-1100+EBP],EAX
   404 0000015E 50                              	PUSH	EAX
   405 0000015F 89 45 BC                        	MOV	DWORD [-68+EBP],EAX
   406 00000162 E8 [00000000]                   	CALL	_task_run
   407 00000167 83 C4 20                        	ADD	ESP,32
   408 0000016A 8B 8D FFFFFBD8                  	MOV	ECX,DWORD [-1064+EBP]
   409 00000170 89 0D 00000FE4                  	MOV	DWORD [4068],ECX
   410 00000176 51                              	PUSH	ECX
   411 00000177 E8 [00000000]                   	CALL	_sheet_alloc
   412 0000017C 0F BF 15 00000FF6               	MOVSX	EDX,WORD [4086]
   413 00000183 89 85 FFFFFBBC                  	MOV	DWORD [-1092+EBP],EAX
   414 00000189 0F BF 05 00000FF4               	MOVSX	EAX,WORD [4084]
   415 00000190 0F AF C2                        	IMUL	EAX,EDX
   416 00000193 50                              	PUSH	EAX
   417 00000194 68 003C0000                     	PUSH	3932160
   418 00000199 E8 [00000000]                   	CALL	_memman_alloc_4k
   419 0000019E 6A FF                           	PUSH	-1
   420 000001A0 89 C3                           	MOV	EBX,EAX
   421 000001A2 0F BF 05 00000FF6               	MOVSX	EAX,WORD [4086]
   422 000001A9 50                              	PUSH	EAX
   423 000001AA 0F BF 05 00000FF4               	MOVSX	EAX,WORD [4084]
   424 000001B1 50                              	PUSH	EAX
   425 000001B2 53                              	PUSH	EBX
   426 000001B3 FF B5 FFFFFBBC                  	PUSH	DWORD [-1092+EBP]
   427 000001B9 E8 [00000000]                   	CALL	_sheet_setbuf
   428 000001BE 83 C4 20                        	ADD	ESP,32
   429 000001C1 0F BF 05 00000FF6               	MOVSX	EAX,WORD [4086]
   430 000001C8 50                              	PUSH	EAX
   431 000001C9 0F BF 05 00000FF4               	MOVSX	EAX,WORD [4084]
   432 000001D0 50                              	PUSH	EAX
   433 000001D1 53                              	PUSH	EBX
   434 000001D2 E8 [00000000]                   	CALL	_init_screen8
   435 000001D7 83 C4 0C                        	ADD	ESP,12
   436 000001DA C7 85 FFFFFBCC 00000001         	MOV	DWORD [-1076+EBP],1
   437 000001E4 31 FF                           	XOR	EDI,EDI
   438 000001E6                                 L6:
   439 000001E6 FF B5 FFFFFBD8                  	PUSH	DWORD [-1064+EBP]
   440 000001EC 8D 9D FFFFFBE4                  	LEA	EBX,DWORD [-1052+EBP]
   441 000001F2 E8 [00000000]                   	CALL	_sheet_alloc
   442 000001F7 68 0000A500                     	PUSH	42240
   443 000001FC 8D B5 FFFFFBDC                  	LEA	ESI,DWORD [-1060+EBP]
   444 00000202 68 003C0000                     	PUSH	3932160
   445 00000207 89 84 3D FFFFFBEC               	MOV	DWORD [-1044+EBP+EDI*1],EAX
   446 0000020E E8 [00000000]                   	CALL	_memman_alloc_4k
   447 00000213 89 04 3B                        	MOV	DWORD [EBX+EDI*1],EAX
   448 00000216 6A FF                           	PUSH	-1
   449 00000218 68 000000A5                     	PUSH	165
   450 0000021D 68 00000100                     	PUSH	256
   451 00000222 50                              	PUSH	EAX
   452 00000223 FF B4 3D FFFFFBEC               	PUSH	DWORD [-1044+EBP+EDI*1]
   453 0000022A E8 [00000000]                   	CALL	_sheet_setbuf
   454 0000022F 83 C4 20                        	ADD	ESP,32
   455 00000232 6A 00                           	PUSH	0
   456 00000234 68 [00000100]                   	PUSH	LC0
   457 00000239 68 000000A5                     	PUSH	165
   458 0000023E 68 00000100                     	PUSH	256
   459 00000243 FF 34 3B                        	PUSH	DWORD [EBX+EDI*1]
   460 00000246 E8 [00000000]                   	CALL	_make_window8
   461 0000024B 6A 00                           	PUSH	0
   462 0000024D 68 00000080                     	PUSH	128
   463 00000252 68 000000F0                     	PUSH	240
   464 00000257 6A 1C                           	PUSH	28
   465 00000259 6A 08                           	PUSH	8
   466 0000025B FF B4 3D FFFFFBEC               	PUSH	DWORD [-1044+EBP+EDI*1]
   467 00000262 E8 [00000000]                   	CALL	_make_textbox8
   468 00000267 83 C4 2C                        	ADD	ESP,44
   469 0000026A E8 [00000000]                   	CALL	_task_alloc
   470 0000026F 89 C3                           	MOV	EBX,EAX
   471 00000271 89 04 3E                        	MOV	DWORD [ESI+EDI*1],EAX
   472 00000274 68 00010000                     	PUSH	65536
   473 00000279 68 003C0000                     	PUSH	3932160
   474 0000027E E8 [00000000]                   	CALL	_memman_alloc_4k
   475 00000283 8B 94 3D FFFFFBEC               	MOV	EDX,DWORD [-1044+EBP+EDI*1]
   476 0000028A 05 0000FFF4                     	ADD	EAX,65524
   477 0000028F 89 43 64                        	MOV	DWORD [100+EBX],EAX
   478 00000292 8B 04 3E                        	MOV	EAX,DWORD [ESI+EDI*1]
   479 00000295 8B 48 64                        	MOV	ECX,DWORD [100+EAX]
   480 00000298 C7 40 4C [00000000]             	MOV	DWORD [76+EAX],_console_task
   481 0000029F C7 40 74 00000008               	MOV	DWORD [116+EAX],8
   482 000002A6 C7 40 78 00000010               	MOV	DWORD [120+EAX],16
   483 000002AD C7 40 7C 00000008               	MOV	DWORD [124+EAX],8
   484 000002B4 C7 80 00000080 00000008         	MOV	DWORD [128+EAX],8
   485 000002BE C7 80 00000084 00000008         	MOV	DWORD [132+EAX],8
   486 000002C8 C7 80 00000088 00000008         	MOV	DWORD [136+EAX],8
   487 000002D2 89 51 04                        	MOV	DWORD [4+ECX],EDX
   488 000002D5 8B 8D FFFFFBC0                  	MOV	ECX,DWORD [-1088+EBP]
   489 000002DB 8B 50 64                        	MOV	EDX,DWORD [100+EAX]
   490 000002DE 89 4A 08                        	MOV	DWORD [8+EDX],ECX
   491 000002E1 6A 02                           	PUSH	2
   492 000002E3 6A 02                           	PUSH	2
   493 000002E5 50                              	PUSH	EAX
   494 000002E6 E8 [00000000]                   	CALL	_task_run
   495 000002EB 83 C4 14                        	ADD	ESP,20
   496 000002EE 8B 84 3D FFFFFBEC               	MOV	EAX,DWORD [-1044+EBP+EDI*1]
   497 000002F5 8B 14 3E                        	MOV	EDX,DWORD [ESI+EDI*1]
   498 000002F8 83 C7 04                        	ADD	EDI,4
   499 000002FB 83 48 1C 20                     	OR	DWORD [28+EAX],32
   500 000002FF FF 8D FFFFFBCC                  	DEC	DWORD [-1076+EBP]
   501 00000305 89 50 24                        	MOV	DWORD [36+EAX],EDX
   502 00000308 0F 89 FFFFFED8                  	JNS	L6
   503 0000030E FF B5 FFFFFBD8                  	PUSH	DWORD [-1064+EBP]
   504 00000314 C7 85 FFFFFBCC 00000002         	MOV	DWORD [-1076+EBP],2
   505 0000031E E8 [00000000]                   	CALL	_sheet_alloc
   506 00000323 68 00002080                     	PUSH	8320
   507 00000328 68 003C0000                     	PUSH	3932160
   508 0000032D 89 C7                           	MOV	EDI,EAX
   509 0000032F E8 [00000000]                   	CALL	_memman_alloc_4k
   510 00000334 6A FF                           	PUSH	-1
   511 00000336 6A 34                           	PUSH	52
   512 00000338 89 C3                           	MOV	EBX,EAX
   513 0000033A 68 00000090                     	PUSH	144
   514 0000033F 50                              	PUSH	EAX
   515 00000340 57                              	PUSH	EDI
   516 00000341 E8 [00000000]                   	CALL	_sheet_setbuf
   517 00000346 83 C4 20                        	ADD	ESP,32
   518 00000349 6A 01                           	PUSH	1
   519 0000034B 68 [00000108]                   	PUSH	LC1
   520 00000350 6A 34                           	PUSH	52
   521 00000352 68 00000090                     	PUSH	144
   522 00000357 53                              	PUSH	EBX
   523 00000358 8D 9D FFFFFBF4                  	LEA	EBX,DWORD [-1036+EBP]
   524 0000035E E8 [00000000]                   	CALL	_make_window8
   525 00000363 6A 07                           	PUSH	7
   526 00000365 6A 10                           	PUSH	16
   527 00000367 68 00000080                     	PUSH	128
   528 0000036C 6A 1C                           	PUSH	28
   529 0000036E 6A 08                           	PUSH	8
   530 00000370 57                              	PUSH	EDI
   531 00000371 E8 [00000000]                   	CALL	_make_textbox8
   532 00000376 83 C4 2C                        	ADD	ESP,44
   533 00000379 C7 85 FFFFFBC8 00000008         	MOV	DWORD [-1080+EBP],8
   534 00000383 C7 85 FFFFFBC4 00000007         	MOV	DWORD [-1084+EBP],7
   535 0000038D E8 [00000000]                   	CALL	_timer_alloc
   536 00000392 6A 01                           	PUSH	1
   537 00000394 89 85 FFFFFBB0                  	MOV	DWORD [-1104+EBP],EAX
   538 0000039A 8D 45 A4                        	LEA	EAX,DWORD [-92+EBP]
   539 0000039D 50                              	PUSH	EAX
   540 0000039E FF B5 FFFFFBB0                  	PUSH	DWORD [-1104+EBP]
   541 000003A4 E8 [00000000]                   	CALL	_timer_init
   542 000003A9 6A 32                           	PUSH	50
   543 000003AB FF B5 FFFFFBB0                  	PUSH	DWORD [-1104+EBP]
   544 000003B1 E8 [00000000]                   	CALL	_timer_settime
   545 000003B6 FF B5 FFFFFBD8                  	PUSH	DWORD [-1064+EBP]
   546 000003BC E8 [00000000]                   	CALL	_sheet_alloc
   547 000003C1 6A 63                           	PUSH	99
   548 000003C3 6A 10                           	PUSH	16
   549 000003C5 6A 10                           	PUSH	16
   550 000003C7 89 85 FFFFFBB8                  	MOV	DWORD [-1096+EBP],EAX
   551 000003CD 53                              	PUSH	EBX
   552 000003CE 50                              	PUSH	EAX
   553 000003CF E8 [00000000]                   	CALL	_sheet_setbuf
   554 000003D4 83 C4 2C                        	ADD	ESP,44
   555 000003D7 6A 63                           	PUSH	99
   556 000003D9 53                              	PUSH	EBX
   557 000003DA 8D 5D 84                        	LEA	EBX,DWORD [-124+EBP]
   558 000003DD E8 [00000000]                   	CALL	_init_mouse_cursor8
   559 000003E2 0F BF 05 00000FF4               	MOVSX	EAX,WORD [4084]
   560 000003E9 8D 50 F0                        	LEA	EDX,DWORD [-16+EAX]
   561 000003EC 89 D0                           	MOV	EAX,EDX
   562 000003EE 99                              	CDQ
   563 000003EF F7 BD FFFFFBCC                  	IDIV	DWORD [-1076+EBP]
   564 000003F5 89 85 FFFFFBD4                  	MOV	DWORD [-1068+EBP],EAX
   565 000003FB 0F BF 05 00000FF6               	MOVSX	EAX,WORD [4086]
   566 00000402 6A 00                           	PUSH	0
   567 00000404 8D 50 D4                        	LEA	EDX,DWORD [-44+EAX]
   568 00000407 6A 00                           	PUSH	0
   569 00000409 89 D0                           	MOV	EAX,EDX
   570 0000040B 99                              	CDQ
   571 0000040C F7 BD FFFFFBCC                  	IDIV	DWORD [-1076+EBP]
   572 00000412 FF B5 FFFFFBBC                  	PUSH	DWORD [-1092+EBP]
   573 00000418 89 85 FFFFFBD0                  	MOV	DWORD [-1072+EBP],EAX
   574 0000041E E8 [00000000]                   	CALL	_sheet_slide
   575 00000423 6A 06                           	PUSH	6
   576 00000425 6A 38                           	PUSH	56
   577 00000427 FF B5 FFFFFBF0                  	PUSH	DWORD [-1040+EBP]
   578 0000042D E8 [00000000]                   	CALL	_sheet_slide
   579 00000432 83 C4 20                        	ADD	ESP,32
   580 00000435 6A 02                           	PUSH	2
   581 00000437 6A 08                           	PUSH	8
   582 00000439 FF B5 FFFFFBEC                  	PUSH	DWORD [-1044+EBP]
   583 0000043F E8 [00000000]                   	CALL	_sheet_slide
   584 00000444 6A 38                           	PUSH	56
   585 00000446 6A 40                           	PUSH	64
   586 00000448 57                              	PUSH	EDI
   587 00000449 E8 [00000000]                   	CALL	_sheet_slide
   588 0000044E FF B5 FFFFFBD0                  	PUSH	DWORD [-1072+EBP]
   589 00000454 FF B5 FFFFFBD4                  	PUSH	DWORD [-1068+EBP]
   590 0000045A FF B5 FFFFFBB8                  	PUSH	DWORD [-1096+EBP]
   591 00000460 E8 [00000000]                   	CALL	_sheet_slide
   592 00000465 83 C4 24                        	ADD	ESP,36
   593 00000468 6A 00                           	PUSH	0
   594 0000046A FF B5 FFFFFBBC                  	PUSH	DWORD [-1092+EBP]
   595 00000470 E8 [00000000]                   	CALL	_sheet_updown
   596 00000475 6A 01                           	PUSH	1
   597 00000477 FF B5 FFFFFBF0                  	PUSH	DWORD [-1040+EBP]
   598 0000047D E8 [00000000]                   	CALL	_sheet_updown
   599 00000482 6A 02                           	PUSH	2
   600 00000484 FF B5 FFFFFBEC                  	PUSH	DWORD [-1044+EBP]
   601 0000048A E8 [00000000]                   	CALL	_sheet_updown
   602 0000048F 6A 03                           	PUSH	3
   603 00000491 57                              	PUSH	EDI
   604 00000492 E8 [00000000]                   	CALL	_sheet_updown
   605 00000497 83 C4 20                        	ADD	ESP,32
   606 0000049A 6A 04                           	PUSH	4
   607 0000049C FF B5 FFFFFBB8                  	PUSH	DWORD [-1096+EBP]
   608 000004A2 E8 [00000000]                   	CALL	_sheet_updown
   609 000004A7 68 000000ED                     	PUSH	237
   610 000004AC 53                              	PUSH	EBX
   611 000004AD 89 BD FFFFFB94                  	MOV	DWORD [-1132+EBP],EDI
   612 000004B3 E8 [00000000]                   	CALL	_fifo32_put
   613 000004B8 FF B5 FFFFFBA8                  	PUSH	DWORD [-1112+EBP]
   614 000004BE 53                              	PUSH	EBX
   615 000004BF E8 [00000000]                   	CALL	_fifo32_put
   616 000004C4 83 C4 18                        	ADD	ESP,24
   617 000004C7                                 L7:
   618 000004C7 8D 5D 84                        	LEA	EBX,DWORD [-124+EBP]
   619 000004CA 53                              	PUSH	EBX
   620 000004CB E8 [00000000]                   	CALL	_fifo32_status
   621 000004D0 59                              	POP	ECX
   622 000004D1 85 C0                           	TEST	EAX,EAX
   623 000004D3 7E 0D                           	JLE	L10
   624 000004D5 83 BD FFFFFBA4 00               	CMP	DWORD [-1116+EBP],0
   625 000004DC 0F 88 0000083E                  	JS	L82
   626 000004E2                                 L10:
   627 000004E2 8D 5D A4                        	LEA	EBX,DWORD [-92+EBP]
   628 000004E5 E8 [00000000]                   	CALL	_io_cli
   629 000004EA 53                              	PUSH	EBX
   630 000004EB E8 [00000000]                   	CALL	_fifo32_status
   631 000004F0 5A                              	POP	EDX
   632 000004F1 85 C0                           	TEST	EAX,EAX
   633 000004F3 0F 84 00000811                  	JE	L83
   634 000004F9 53                              	PUSH	EBX
   635 000004FA E8 [00000000]                   	CALL	_fifo32_get
   636 000004FF 89 85 FFFFFBCC                  	MOV	DWORD [-1076+EBP],EAX
   637 00000505 E8 [00000000]                   	CALL	_io_sti
   638 0000050A 8B 95 FFFFFB94                  	MOV	EDX,DWORD [-1132+EBP]
   639 00000510 5E                              	POP	ESI
   640 00000511 83 7A 1C 00                     	CMP	DWORD [28+EDX],0
   641 00000515 75 29                           	JNE	L13
   642 00000517 8B 8D FFFFFBD8                  	MOV	ECX,DWORD [-1064+EBP]
   643 0000051D 8B 41 10                        	MOV	EAX,DWORD [16+ECX]
   644 00000520 8B 44 81 10                     	MOV	EAX,DWORD [16+ECX+EAX*4]
   645 00000524 FF B5 FFFFFBC4                  	PUSH	DWORD [-1084+EBP]
   646 0000052A 57                              	PUSH	EDI
   647 0000052B 89 85 FFFFFB94                  	MOV	DWORD [-1132+EBP],EAX
   648 00000531 50                              	PUSH	EAX
   649 00000532 E8 0000086C                     	CALL	_keywin_on
   650 00000537 83 C4 0C                        	ADD	ESP,12
   651 0000053A 89 85 FFFFFBC4                  	MOV	DWORD [-1084+EBP],EAX
   652 00000540                                 L13:
   653 00000540 8B 85 FFFFFBCC                  	MOV	EAX,DWORD [-1076+EBP]
   654 00000546 2D 00000100                     	SUB	EAX,256
   655 0000054B 3D 000000FF                     	CMP	EAX,255
   656 00000550 0F 86 00000377                  	JBE	L84
   657 00000556 8B 85 FFFFFBCC                  	MOV	EAX,DWORD [-1076+EBP]
   658 0000055C 2D 00000200                     	SUB	EAX,512
   659 00000561 3D 000000FF                     	CMP	EAX,255
   660 00000566 0F 86 000000CF                  	JBE	L85
   661 0000056C 83 BD FFFFFBCC 01               	CMP	DWORD [-1076+EBP],1
   662 00000573 0F 8F FFFFFF4E                  	JG	L7
   663 00000579 83 BD FFFFFBCC 00               	CMP	DWORD [-1076+EBP],0
   664 00000580 0F 84 00000088                  	JE	L71
   665 00000586 6A 00                           	PUSH	0
   666 00000588 53                              	PUSH	EBX
   667 00000589 FF B5 FFFFFBB0                  	PUSH	DWORD [-1104+EBP]
   668 0000058F E8 [00000000]                   	CALL	_timer_init
   669 00000594 83 C4 0C                        	ADD	ESP,12
   670 00000597 83 BD FFFFFBC4 00               	CMP	DWORD [-1084+EBP],0
   671 0000059E 78 0A                           	JS	L73
   672 000005A0 C7 85 FFFFFBC4 00000000         	MOV	DWORD [-1084+EBP],0
   673 000005AA                                 L73:
   674 000005AA 6A 32                           	PUSH	50
   675 000005AC FF B5 FFFFFBB0                  	PUSH	DWORD [-1104+EBP]
   676 000005B2 E8 [00000000]                   	CALL	_timer_settime
   677 000005B7 58                              	POP	EAX
   678 000005B8 5A                              	POP	EDX
   679 000005B9 83 BD FFFFFBC4 00               	CMP	DWORD [-1084+EBP],0
   680 000005C0 0F 88 FFFFFF01                  	JS	L7
   681 000005C6 8B 85 FFFFFBC8                  	MOV	EAX,DWORD [-1080+EBP]
   682 000005CC 6A 2B                           	PUSH	43
   683 000005CE 83 C0 07                        	ADD	EAX,7
   684 000005D1 50                              	PUSH	EAX
   685 000005D2 6A 1C                           	PUSH	28
   686 000005D4 FF B5 FFFFFBC8                  	PUSH	DWORD [-1080+EBP]
   687 000005DA 0F B6 85 FFFFFBC4               	MOVZX	EAX,BYTE [-1084+EBP]
   688 000005E1 50                              	PUSH	EAX
   689 000005E2 FF 77 04                        	PUSH	DWORD [4+EDI]
   690 000005E5 FF 37                           	PUSH	DWORD [EDI]
   691 000005E7 E8 [00000000]                   	CALL	_boxfill8
   692 000005EC 8B 85 FFFFFBC8                  	MOV	EAX,DWORD [-1080+EBP]
   693 000005F2 6A 2C                           	PUSH	44
   694 000005F4 83 C0 08                        	ADD	EAX,8
   695 000005F7 50                              	PUSH	EAX
   696 000005F8 6A 1C                           	PUSH	28
   697 000005FA FF B5 FFFFFBC8                  	PUSH	DWORD [-1080+EBP]
   698 00000600 57                              	PUSH	EDI
   699 00000601 E8 [00000000]                   	CALL	_sheet_refresh
   700 00000606 83 C4 30                        	ADD	ESP,48
   701 00000609 E9 FFFFFEB9                     	JMP	L7
   702 0000060E                                 L71:
   703 0000060E 6A 01                           	PUSH	1
   704 00000610 53                              	PUSH	EBX
   705 00000611 FF B5 FFFFFBB0                  	PUSH	DWORD [-1104+EBP]
   706 00000617 E8 [00000000]                   	CALL	_timer_init
   707 0000061C 83 C4 0C                        	ADD	ESP,12
   708 0000061F 83 BD FFFFFBC4 00               	CMP	DWORD [-1084+EBP],0
   709 00000626 0F 88 FFFFFF7E                  	JS	L73
   710 0000062C C7 85 FFFFFBC4 00000007         	MOV	DWORD [-1084+EBP],7
   711 00000636 E9 FFFFFF6F                     	JMP	L73
   712 0000063B                                 L85:
   713 0000063B 0F B6 85 FFFFFBCC               	MOVZX	EAX,BYTE [-1076+EBP]
   714 00000642 50                              	PUSH	EAX
   715 00000643 8D 85 FFFFFCF4                  	LEA	EAX,DWORD [-780+EBP]
   716 00000649 50                              	PUSH	EAX
   717 0000064A E8 [00000000]                   	CALL	_mouse_decode
   718 0000064F 59                              	POP	ECX
   719 00000650 5B                              	POP	EBX
   720 00000651 85 C0                           	TEST	EAX,EAX
   721 00000653 0F 84 FFFFFE6E                  	JE	L7
   722 00000659 8B 8D FFFFFCFC                  	MOV	ECX,DWORD [-772+EBP]
   723 0000065F 8B 85 FFFFFCF8                  	MOV	EAX,DWORD [-776+EBP]
   724 00000665 01 8D FFFFFBD0                  	ADD	DWORD [-1072+EBP],ECX
   725 0000066B 01 85 FFFFFBD4                  	ADD	DWORD [-1068+EBP],EAX
   726 00000671 0F 88 00000247                  	JS	L86
   727 00000677                                 L50:
   728 00000677 83 BD FFFFFBD0 00               	CMP	DWORD [-1072+EBP],0
   729 0000067E 0F 88 0000022B                  	JS	L87
   730 00000684                                 L51:
   731 00000684 0F BF 05 00000FF4               	MOVSX	EAX,WORD [4084]
   732 0000068B 48                              	DEC	EAX
   733 0000068C 39 85 FFFFFBD4                  	CMP	DWORD [-1068+EBP],EAX
   734 00000692 7E 06                           	JLE	L52
   735 00000694 89 85 FFFFFBD4                  	MOV	DWORD [-1068+EBP],EAX
   736 0000069A                                 L52:
   737 0000069A 0F BF 05 00000FF6               	MOVSX	EAX,WORD [4086]
   738 000006A1 48                              	DEC	EAX
   739 000006A2 39 85 FFFFFBD0                  	CMP	DWORD [-1072+EBP],EAX
   740 000006A8 7E 06                           	JLE	L53
   741 000006AA 89 85 FFFFFBD0                  	MOV	DWORD [-1072+EBP],EAX
   742 000006B0                                 L53:
   743 000006B0 FF B5 FFFFFBD0                  	PUSH	DWORD [-1072+EBP]
   744 000006B6 FF B5 FFFFFBD4                  	PUSH	DWORD [-1068+EBP]
   745 000006BC FF B5 FFFFFBB8                  	PUSH	DWORD [-1096+EBP]
   746 000006C2 E8 [00000000]                   	CALL	_sheet_slide
   747 000006C7 83 C4 0C                        	ADD	ESP,12
   748 000006CA F7 85 FFFFFD00 00000001         	TEST	DWORD [-768+EBP],1
   749 000006D4 75 0F                           	JNE	L88
   750 000006D6 C7 85 FFFFFBA0 FFFFFFFF         	MOV	DWORD [-1120+EBP],-1
   751 000006E0 E9 FFFFFDE2                     	JMP	L7
   752 000006E5                                 L88:
   753 000006E5 83 BD FFFFFBA0 00               	CMP	DWORD [-1120+EBP],0
   754 000006EC 78 4C                           	JS	L89
   755 000006EE 8B 9D FFFFFBD0                  	MOV	EBX,DWORD [-1072+EBP]
   756 000006F4 8B 85 FFFFFB98                  	MOV	EAX,DWORD [-1128+EBP]
   757 000006FA 2B 9D FFFFFB9C                  	SUB	EBX,DWORD [-1124+EBP]
   758 00000700 8B B5 FFFFFBD4                  	MOV	ESI,DWORD [-1068+EBP]
   759 00000706 2B B5 FFFFFBA0                  	SUB	ESI,DWORD [-1120+EBP]
   760 0000070C 03 58 10                        	ADD	EBX,DWORD [16+EAX]
   761 0000070F 53                              	PUSH	EBX
   762 00000710 03 70 0C                        	ADD	ESI,DWORD [12+EAX]
   763 00000713 56                              	PUSH	ESI
   764 00000714 50                              	PUSH	EAX
   765 00000715 E8 [00000000]                   	CALL	_sheet_slide
   766 0000071A 83 C4 0C                        	ADD	ESP,12
   767 0000071D 8B 95 FFFFFBD4                  	MOV	EDX,DWORD [-1068+EBP]
   768 00000723 8B 8D FFFFFBD0                  	MOV	ECX,DWORD [-1072+EBP]
   769 00000729 89 95 FFFFFBA0                  	MOV	DWORD [-1120+EBP],EDX
   770 0000072F 89 8D FFFFFB9C                  	MOV	DWORD [-1124+EBP],ECX
   771 00000735 E9 FFFFFD8D                     	JMP	L7
   772 0000073A                                 L89:
   773 0000073A 8B 95 FFFFFBD8                  	MOV	EDX,DWORD [-1064+EBP]
   774 00000740 8B 52 10                        	MOV	EDX,DWORD [16+EDX]
   775 00000743 89 95 FFFFFB90                  	MOV	DWORD [-1136+EBP],EDX
   776 00000749 89 D1                           	MOV	ECX,EDX
   777 0000074B                                 L81:
   778 0000074B 49                              	DEC	ECX
   779 0000074C 85 C9                           	TEST	ECX,ECX
   780 0000074E 0F 8E FFFFFD73                  	JLE	L7
   781 00000754 8B 85 FFFFFBD8                  	MOV	EAX,DWORD [-1064+EBP]
   782 0000075A 8B 9D FFFFFBD0                  	MOV	EBX,DWORD [-1072+EBP]
   783 00000760 8B B5 FFFFFBD4                  	MOV	ESI,DWORD [-1068+EBP]
   784 00000766 8B 44 88 14                     	MOV	EAX,DWORD [20+EAX+ECX*4]
   785 0000076A 89 85 FFFFFB98                  	MOV	DWORD [-1128+EBP],EAX
   786 00000770 2B 58 10                        	SUB	EBX,DWORD [16+EAX]
   787 00000773 2B 70 0C                        	SUB	ESI,DWORD [12+EAX]
   788 00000776 78 D3                           	JS	L81
   789 00000778 8B 40 04                        	MOV	EAX,DWORD [4+EAX]
   790 0000077B 39 C6                           	CMP	ESI,EAX
   791 0000077D 7D CC                           	JGE	L81
   792 0000077F 85 DB                           	TEST	EBX,EBX
   793 00000781 78 C8                           	JS	L81
   794 00000783 8B 95 FFFFFB98                  	MOV	EDX,DWORD [-1128+EBP]
   795 00000789 3B 5A 08                        	CMP	EBX,DWORD [8+EDX]
   796 0000078C 7D BD                           	JGE	L81
   797 0000078E 0F AF C3                        	IMUL	EAX,EBX
   798 00000791 89 85 FFFFFB8C                  	MOV	DWORD [-1140+EBP],EAX
   799 00000797 8B 12                           	MOV	EDX,DWORD [EDX]
   800 00000799 8B 85 FFFFFB8C                  	MOV	EAX,DWORD [-1140+EBP]
   801 0000079F 01 F0                           	ADD	EAX,ESI
   802 000007A1 0F B6 04 10                     	MOVZX	EAX,BYTE [EAX+EDX*1]
   803 000007A5 8B 95 FFFFFB98                  	MOV	EDX,DWORD [-1128+EBP]
   804 000007AB 3B 42 14                        	CMP	EAX,DWORD [20+EDX]
   805 000007AE 74 9B                           	JE	L81
   806 000007B0 8B 85 FFFFFB90                  	MOV	EAX,DWORD [-1136+EBP]
   807 000007B6 48                              	DEC	EAX
   808 000007B7 50                              	PUSH	EAX
   809 000007B8 52                              	PUSH	EDX
   810 000007B9 E8 [00000000]                   	CALL	_sheet_updown
   811 000007BE 8B 8D FFFFFB94                  	MOV	ECX,DWORD [-1132+EBP]
   812 000007C4 58                              	POP	EAX
   813 000007C5 39 8D FFFFFB98                  	CMP	DWORD [-1128+EBP],ECX
   814 000007CB 5A                              	POP	EDX
   815 000007CC 74 3B                           	JE	L62
   816 000007CE FF B5 FFFFFBC8                  	PUSH	DWORD [-1080+EBP]
   817 000007D4 FF B5 FFFFFBC4                  	PUSH	DWORD [-1084+EBP]
   818 000007DA 57                              	PUSH	EDI
   819 000007DB 51                              	PUSH	ECX
   820 000007DC E8 00000565                     	CALL	_keywin_off
   821 000007E1 89 85 FFFFFBC4                  	MOV	DWORD [-1084+EBP],EAX
   822 000007E7 8B 85 FFFFFB98                  	MOV	EAX,DWORD [-1128+EBP]
   823 000007ED FF B5 FFFFFBC4                  	PUSH	DWORD [-1084+EBP]
   824 000007F3 57                              	PUSH	EDI
   825 000007F4 89 85 FFFFFB94                  	MOV	DWORD [-1132+EBP],EAX
   826 000007FA 50                              	PUSH	EAX
   827 000007FB E8 000005A3                     	CALL	_keywin_on
   828 00000800 83 C4 1C                        	ADD	ESP,28
   829 00000803 89 85 FFFFFBC4                  	MOV	DWORD [-1084+EBP],EAX
   830 00000809                                 L62:
   831 00000809 83 FE 02                        	CMP	ESI,2
   832 0000080C 7E 32                           	JLE	L63
   833 0000080E 8B 95 FFFFFB98                  	MOV	EDX,DWORD [-1128+EBP]
   834 00000814 8B 42 04                        	MOV	EAX,DWORD [4+EDX]
   835 00000817 83 E8 03                        	SUB	EAX,3
   836 0000081A 39 C6                           	CMP	ESI,EAX
   837 0000081C 7D 22                           	JGE	L63
   838 0000081E 83 FB 02                        	CMP	EBX,2
   839 00000821 7E 1D                           	JLE	L63
   840 00000823 83 FB 14                        	CMP	EBX,20
   841 00000826 7F 18                           	JG	L63
   842 00000828 8B 8D FFFFFBD4                  	MOV	ECX,DWORD [-1068+EBP]
   843 0000082E 8B 85 FFFFFBD0                  	MOV	EAX,DWORD [-1072+EBP]
   844 00000834 89 8D FFFFFBA0                  	MOV	DWORD [-1120+EBP],ECX
   845 0000083A 89 85 FFFFFB9C                  	MOV	DWORD [-1124+EBP],EAX
   846 00000840                                 L63:
   847 00000840 8B 8D FFFFFB98                  	MOV	ECX,DWORD [-1128+EBP]
   848 00000846 8B 51 04                        	MOV	EDX,DWORD [4+ECX]
   849 00000849 8D 42 EB                        	LEA	EAX,DWORD [-21+EDX]
   850 0000084C 39 F0                           	CMP	EAX,ESI
   851 0000084E 0F 8F FFFFFC73                  	JG	L7
   852 00000854 8D 42 FB                        	LEA	EAX,DWORD [-5+EDX]
   853 00000857 39 C6                           	CMP	ESI,EAX
   854 00000859 0F 8D FFFFFC68                  	JGE	L7
   855 0000085F 83 FB 04                        	CMP	EBX,4
   856 00000862 0F 8E FFFFFC5F                  	JLE	L7
   857 00000868 83 FB 12                        	CMP	EBX,18
   858 0000086B 0F 8F FFFFFC56                  	JG	L7
   859 00000871 F6 41 1C 10                     	TEST	BYTE [28+ECX],16
   860 00000875 0F 84 FFFFFC4C                  	JE	L7
   861 0000087B 68 [0000010F]                   	PUSH	LC4
   862 00000880 FF 35 00000FEC                  	PUSH	DWORD [4076]
   863 00000886 E8 [00000000]                   	CALL	_cons_putstr0
   864 0000088B E8 [00000000]                   	CALL	_io_cli
   865 00000890 8B 85 FFFFFBDC                  	MOV	EAX,DWORD [-1060+EBP]
   866 00000896 8D 50 30                        	LEA	EDX,DWORD [48+EAX]
   867 00000899 89 50 54                        	MOV	DWORD [84+EAX],EDX
   868 0000089C C7 40 4C [00000000]             	MOV	DWORD [76+EAX],_asm_end_app
   869 000008A3 E8 [00000000]                   	CALL	_io_sti
   870 000008A8 59                              	POP	ECX
   871 000008A9 5B                              	POP	EBX
   872 000008AA E9 FFFFFC18                     	JMP	L7
   873 000008AF                                 L87:
   874 000008AF C7 85 FFFFFBD0 00000000         	MOV	DWORD [-1072+EBP],0
   875 000008B9 E9 FFFFFDC6                     	JMP	L51
   876 000008BE                                 L86:
   877 000008BE C7 85 FFFFFBD4 00000000         	MOV	DWORD [-1068+EBP],0
   878 000008C8 E9 FFFFFDAA                     	JMP	L50
   879 000008CD                                 L84:
   880 000008CD 81 BD FFFFFBCC 0000017F         	CMP	DWORD [-1076+EBP],383
   881 000008D7 0F 8F 00000424                  	JG	L15
   882 000008DD 83 BD FFFFFBAC 00               	CMP	DWORD [-1108+EBP],0
   883 000008E4 0F 85 00000406                  	JNE	L16
   884 000008EA 8B 95 FFFFFBCC                  	MOV	EDX,DWORD [-1076+EBP]
   885 000008F0 8A 82 [FFFFFF00]                	MOV	AL,BYTE [_keytable0.0-256+EDX]
   886 000008F6                                 L80:
   887 000008F6 88 45 C4                        	MOV	BYTE [-60+EBP],AL
   888 000008F9                                 L18:
   889 000008F9 8A 55 C4                        	MOV	DL,BYTE [-60+EBP]
   890 000008FC 8D 42 BF                        	LEA	EAX,DWORD [-65+EDX]
   891 000008FF 3C 19                           	CMP	AL,25
   892 00000901 77 1D                           	JA	L19
   893 00000903 F7 85 FFFFFBA8 00000004         	TEST	DWORD [-1112+EBP],4
   894 0000090D 0F 85 000003CE                  	JNE	L79
   895 00000913 83 BD FFFFFBAC 00               	CMP	DWORD [-1108+EBP],0
   896 0000091A 0F 84 000003B6                  	JE	L21
   897 00000920                                 L19:
   898 00000920 8A 45 C4                        	MOV	AL,BYTE [-60+EBP]
   899 00000923 84 C0                           	TEST	AL,AL
   900 00000925 74 29                           	JE	L23
   901 00000927 39 BD FFFFFB94                  	CMP	DWORD [-1132+EBP],EDI
   902 0000092D 0F 84 0000036B                  	JE	L90
   903 00000933 0F BE C0                        	MOVSX	EAX,AL
   904 00000936 05 00000100                     	ADD	EAX,256
   905 0000093B 8B 95 FFFFFB94                  	MOV	EDX,DWORD [-1132+EBP]
   906 00000941 50                              	PUSH	EAX
   907 00000942 8B 42 24                        	MOV	EAX,DWORD [36+EDX]
   908 00000945 83 C0 10                        	ADD	EAX,16
   909 00000948 50                              	PUSH	EAX
   910 00000949 E8 [00000000]                   	CALL	_fifo32_put
   911 0000094E 59                              	POP	ECX
   912 0000094F 5B                              	POP	EBX
   913 00000950                                 L23:
   914 00000950 81 BD FFFFFBCC 0000010E         	CMP	DWORD [-1076+EBP],270
   915 0000095A 0F 84 000002E3                  	JE	L91
   916 00000960                                 L27:
   917 00000960 81 BD FFFFFBCC 0000011C         	CMP	DWORD [-1076+EBP],284
   918 0000096A 0F 84 000002A9                  	JE	L92
   919 00000970                                 L31:
   920 00000970 81 BD FFFFFBCC 0000010F         	CMP	DWORD [-1076+EBP],271
   921 0000097A 0F 84 00000237                  	JE	L93
   922 00000980                                 L33:
   923 00000980 81 BD FFFFFBCC 0000012A         	CMP	DWORD [-1076+EBP],298
   924 0000098A 0F 84 0000021B                  	JE	L94
   925 00000990                                 L35:
   926 00000990 81 BD FFFFFBCC 00000136         	CMP	DWORD [-1076+EBP],310
   927 0000099A 0F 84 000001FF                  	JE	L95
   928 000009A0                                 L36:
   929 000009A0 81 BD FFFFFBCC 000001AA         	CMP	DWORD [-1076+EBP],426
   930 000009AA 0F 84 000001E3                  	JE	L96
   931 000009B0                                 L37:
   932 000009B0 81 BD FFFFFBCC 000001B6         	CMP	DWORD [-1076+EBP],438
   933 000009BA 0F 84 000001C7                  	JE	L97
   934 000009C0                                 L38:
   935 000009C0 81 BD FFFFFBCC 0000013A         	CMP	DWORD [-1076+EBP],314
   936 000009CA 0F 84 0000018E                  	JE	L98
   937 000009D0                                 L39:
   938 000009D0 81 BD FFFFFBCC 00000145         	CMP	DWORD [-1076+EBP],325
   939 000009DA 0F 84 00000155                  	JE	L99
   940 000009E0                                 L40:
   941 000009E0 81 BD FFFFFBCC 00000146         	CMP	DWORD [-1076+EBP],326
   942 000009EA 0F 84 0000011C                  	JE	L100
   943 000009F0                                 L41:
   944 000009F0 81 BD FFFFFBCC 0000013B         	CMP	DWORD [-1076+EBP],315
   945 000009FA 0F 84 000000BB                  	JE	L101
   946 00000A00                                 L42:
   947 00000A00 81 BD FFFFFBCC 00000157         	CMP	DWORD [-1076+EBP],343
   948 00000A0A 0F 84 00000091                  	JE	L102
   949 00000A10                                 L43:
   950 00000A10 81 BD FFFFFBCC 000001FA         	CMP	DWORD [-1076+EBP],506
   951 00000A1A 74 76                           	JE	L103
   952 00000A1C                                 L44:
   953 00000A1C 81 BD FFFFFBCC 000001FE         	CMP	DWORD [-1076+EBP],510
   954 00000A26 74 54                           	JE	L104
   955 00000A28                                 L45:
   956 00000A28 83 BD FFFFFBC4 00               	CMP	DWORD [-1084+EBP],0
   957 00000A2F 78 29                           	JS	L46
   958 00000A31 8B 85 FFFFFBC8                  	MOV	EAX,DWORD [-1080+EBP]
   959 00000A37 6A 2B                           	PUSH	43
   960 00000A39 83 C0 07                        	ADD	EAX,7
   961 00000A3C 50                              	PUSH	EAX
   962 00000A3D 6A 1C                           	PUSH	28
   963 00000A3F FF B5 FFFFFBC8                  	PUSH	DWORD [-1080+EBP]
   964 00000A45 0F B6 85 FFFFFBC4               	MOVZX	EAX,BYTE [-1084+EBP]
   965 00000A4C 50                              	PUSH	EAX
   966 00000A4D FF 77 04                        	PUSH	DWORD [4+EDI]
   967 00000A50 FF 37                           	PUSH	DWORD [EDI]
   968 00000A52 E8 [00000000]                   	CALL	_boxfill8
   969 00000A57 83 C4 1C                        	ADD	ESP,28
   970 00000A5A                                 L46:
   971 00000A5A 8B 85 FFFFFBC8                  	MOV	EAX,DWORD [-1080+EBP]
   972 00000A60 6A 2C                           	PUSH	44
   973 00000A62 83 C0 08                        	ADD	EAX,8
   974 00000A65 50                              	PUSH	EAX
   975 00000A66 6A 1C                           	PUSH	28
   976 00000A68 FF B5 FFFFFBC8                  	PUSH	DWORD [-1080+EBP]
   977 00000A6E 57                              	PUSH	EDI
   978 00000A6F E8 [00000000]                   	CALL	_sheet_refresh
   979 00000A74 83 C4 14                        	ADD	ESP,20
   980 00000A77 E9 FFFFFA4B                     	JMP	L7
   981 00000A7C                                 L104:
   982 00000A7C E8 [00000000]                   	CALL	_wait_KBC_sendready
   983 00000A81 FF B5 FFFFFBA4                  	PUSH	DWORD [-1116+EBP]
   984 00000A87 6A 60                           	PUSH	96
   985 00000A89 E8 [00000000]                   	CALL	_io_out8
   986 00000A8E 5E                              	POP	ESI
   987 00000A8F 58                              	POP	EAX
   988 00000A90 EB 96                           	JMP	L45
   989 00000A92                                 L103:
   990 00000A92 C7 85 FFFFFBA4 FFFFFFFF         	MOV	DWORD [-1116+EBP],-1
   991 00000A9C E9 FFFFFF7B                     	JMP	L44
   992 00000AA1                                 L102:
   993 00000AA1 8B 95 FFFFFBD8                  	MOV	EDX,DWORD [-1064+EBP]
   994 00000AA7 8B 42 10                        	MOV	EAX,DWORD [16+EDX]
   995 00000AAA 48                              	DEC	EAX
   996 00000AAB 50                              	PUSH	EAX
   997 00000AAC FF 72 18                        	PUSH	DWORD [24+EDX]
   998 00000AAF E8 [00000000]                   	CALL	_sheet_updown
   999 00000AB4 58                              	POP	EAX
  1000 00000AB5 5A                              	POP	EDX
  1001 00000AB6 E9 FFFFFF55                     	JMP	L43
  1002 00000ABB                                 L101:
  1003 00000ABB 83 BD FFFFFBAC 00               	CMP	DWORD [-1108+EBP],0
  1004 00000AC2 0F 84 FFFFFF38                  	JE	L42
  1005 00000AC8 8B 85 FFFFFBDC                  	MOV	EAX,DWORD [-1060+EBP]
  1006 00000ACE 83 78 34 00                     	CMP	DWORD [52+EAX],0
  1007 00000AD2 0F 84 FFFFFF28                  	JE	L42
  1008 00000AD8 68 [00000120]                   	PUSH	LC3
  1009 00000ADD FF 35 00000FEC                  	PUSH	DWORD [4076]
  1010 00000AE3 E8 [00000000]                   	CALL	_cons_putstr0
  1011 00000AE8 E8 [00000000]                   	CALL	_io_cli
  1012 00000AED 8B 85 FFFFFBDC                  	MOV	EAX,DWORD [-1060+EBP]
  1013 00000AF3 8D 50 30                        	LEA	EDX,DWORD [48+EAX]
  1014 00000AF6 89 50 54                        	MOV	DWORD [84+EAX],EDX
  1015 00000AF9 C7 40 4C [00000000]             	MOV	DWORD [76+EAX],_asm_end_app
  1016 00000B00 E8 [00000000]                   	CALL	_io_sti
  1017 00000B05 59                              	POP	ECX
  1018 00000B06 5B                              	POP	EBX
  1019 00000B07 E9 FFFFFEF4                     	JMP	L42
  1020 00000B0C                                 L100:
  1021 00000B0C 68 000000ED                     	PUSH	237
  1022 00000B11 8D 5D 84                        	LEA	EBX,DWORD [-124+EBP]
  1023 00000B14 53                              	PUSH	EBX
  1024 00000B15 83 B5 FFFFFBA8 01               	XOR	DWORD [-1112+EBP],1
  1025 00000B1C E8 [00000000]                   	CALL	_fifo32_put
  1026 00000B21 FF B5 FFFFFBA8                  	PUSH	DWORD [-1112+EBP]
  1027 00000B27 53                              	PUSH	EBX
  1028 00000B28 E8 [00000000]                   	CALL	_fifo32_put
  1029 00000B2D 83 C4 10                        	ADD	ESP,16
  1030 00000B30 E9 FFFFFEBB                     	JMP	L41
  1031 00000B35                                 L99:
  1032 00000B35 68 000000ED                     	PUSH	237
  1033 00000B3A 8D 5D 84                        	LEA	EBX,DWORD [-124+EBP]
  1034 00000B3D 53                              	PUSH	EBX
  1035 00000B3E 83 B5 FFFFFBA8 02               	XOR	DWORD [-1112+EBP],2
  1036 00000B45 E8 [00000000]                   	CALL	_fifo32_put
  1037 00000B4A FF B5 FFFFFBA8                  	PUSH	DWORD [-1112+EBP]
  1038 00000B50 53                              	PUSH	EBX
  1039 00000B51 E8 [00000000]                   	CALL	_fifo32_put
  1040 00000B56 83 C4 10                        	ADD	ESP,16
  1041 00000B59 E9 FFFFFE82                     	JMP	L40
  1042 00000B5E                                 L98:
  1043 00000B5E 68 000000ED                     	PUSH	237
  1044 00000B63 8D 5D 84                        	LEA	EBX,DWORD [-124+EBP]
  1045 00000B66 53                              	PUSH	EBX
  1046 00000B67 83 B5 FFFFFBA8 04               	XOR	DWORD [-1112+EBP],4
  1047 00000B6E E8 [00000000]                   	CALL	_fifo32_put
  1048 00000B73 FF B5 FFFFFBA8                  	PUSH	DWORD [-1112+EBP]
  1049 00000B79 53                              	PUSH	EBX
  1050 00000B7A E8 [00000000]                   	CALL	_fifo32_put
  1051 00000B7F 83 C4 10                        	ADD	ESP,16
  1052 00000B82 E9 FFFFFE49                     	JMP	L39
  1053 00000B87                                 L97:
  1054 00000B87 83 A5 FFFFFBAC FD               	AND	DWORD [-1108+EBP],-3
  1055 00000B8E E9 FFFFFE2D                     	JMP	L38
  1056 00000B93                                 L96:
  1057 00000B93 83 A5 FFFFFBAC FE               	AND	DWORD [-1108+EBP],-2
  1058 00000B9A E9 FFFFFE11                     	JMP	L37
  1059 00000B9F                                 L95:
  1060 00000B9F 83 8D FFFFFBAC 02               	OR	DWORD [-1108+EBP],2
  1061 00000BA6 E9 FFFFFDF5                     	JMP	L36
  1062 00000BAB                                 L94:
  1063 00000BAB 83 8D FFFFFBAC 01               	OR	DWORD [-1108+EBP],1
  1064 00000BB2 E9 FFFFFDD9                     	JMP	L35
  1065 00000BB7                                 L93:
  1066 00000BB7 FF B5 FFFFFBC8                  	PUSH	DWORD [-1080+EBP]
  1067 00000BBD FF B5 FFFFFBC4                  	PUSH	DWORD [-1084+EBP]
  1068 00000BC3 57                              	PUSH	EDI
  1069 00000BC4 FF B5 FFFFFB94                  	PUSH	DWORD [-1132+EBP]
  1070 00000BCA E8 00000177                     	CALL	_keywin_off
  1071 00000BCF 83 C4 10                        	ADD	ESP,16
  1072 00000BD2 89 85 FFFFFBC4                  	MOV	DWORD [-1084+EBP],EAX
  1073 00000BD8 8B 85 FFFFFB94                  	MOV	EAX,DWORD [-1132+EBP]
  1074 00000BDE 8B 48 18                        	MOV	ECX,DWORD [24+EAX]
  1075 00000BE1 49                              	DEC	ECX
  1076 00000BE2 75 0A                           	JNE	L34
  1077 00000BE4 8B 95 FFFFFBD8                  	MOV	EDX,DWORD [-1064+EBP]
  1078 00000BEA 8B 4A 10                        	MOV	ECX,DWORD [16+EDX]
  1079 00000BED 49                              	DEC	ECX
  1080 00000BEE                                 L34:
  1081 00000BEE 8B 85 FFFFFBD8                  	MOV	EAX,DWORD [-1064+EBP]
  1082 00000BF4 8B 4C 88 14                     	MOV	ECX,DWORD [20+EAX+ECX*4]
  1083 00000BF8 FF B5 FFFFFBC4                  	PUSH	DWORD [-1084+EBP]
  1084 00000BFE 57                              	PUSH	EDI
  1085 00000BFF 89 8D FFFFFB94                  	MOV	DWORD [-1132+EBP],ECX
  1086 00000C05 51                              	PUSH	ECX
  1087 00000C06 E8 00000198                     	CALL	_keywin_on
  1088 00000C0B 83 C4 0C                        	ADD	ESP,12
  1089 00000C0E 89 85 FFFFFBC4                  	MOV	DWORD [-1084+EBP],EAX
  1090 00000C14 E9 FFFFFD67                     	JMP	L33
  1091 00000C19                                 L92:
  1092 00000C19 39 BD FFFFFB94                  	CMP	DWORD [-1132+EBP],EDI
  1093 00000C1F 0F 84 FFFFFD4B                  	JE	L31
  1094 00000C25 8B 95 FFFFFB94                  	MOV	EDX,DWORD [-1132+EBP]
  1095 00000C2B 68 0000010A                     	PUSH	266
  1096 00000C30 8B 42 24                        	MOV	EAX,DWORD [36+EDX]
  1097 00000C33 83 C0 10                        	ADD	EAX,16
  1098 00000C36 50                              	PUSH	EAX
  1099 00000C37 E8 [00000000]                   	CALL	_fifo32_put
  1100 00000C3C 5E                              	POP	ESI
  1101 00000C3D 58                              	POP	EAX
  1102 00000C3E E9 FFFFFD2D                     	JMP	L31
  1103 00000C43                                 L91:
  1104 00000C43 39 BD FFFFFB94                  	CMP	DWORD [-1132+EBP],EDI
  1105 00000C49 74 1E                           	JE	L105
  1106 00000C4B 8B 8D FFFFFB94                  	MOV	ECX,DWORD [-1132+EBP]
  1107 00000C51 68 00000108                     	PUSH	264
  1108 00000C56 8B 41 24                        	MOV	EAX,DWORD [36+ECX]
  1109 00000C59 83 C0 10                        	ADD	EAX,16
  1110 00000C5C 50                              	PUSH	EAX
  1111 00000C5D E8 [00000000]                   	CALL	_fifo32_put
  1112 00000C62 58                              	POP	EAX
  1113 00000C63 5A                              	POP	EDX
  1114 00000C64 E9 FFFFFCF7                     	JMP	L27
  1115 00000C69                                 L105:
  1116 00000C69 83 BD FFFFFBC8 08               	CMP	DWORD [-1080+EBP],8
  1117 00000C70 0F 8E FFFFFCEA                  	JLE	L27
  1118 00000C76 6A 01                           	PUSH	1
  1119 00000C78 68 [0000012F]                   	PUSH	LC2
  1120 00000C7D 6A 07                           	PUSH	7
  1121 00000C7F 6A 00                           	PUSH	0
  1122 00000C81 6A 1C                           	PUSH	28
  1123 00000C83 FF B5 FFFFFBC8                  	PUSH	DWORD [-1080+EBP]
  1124 00000C89 57                              	PUSH	EDI
  1125 00000C8A E8 [00000000]                   	CALL	_putfonts8_asc_sht
  1126 00000C8F 83 C4 1C                        	ADD	ESP,28
  1127 00000C92 83 AD FFFFFBC8 08               	SUB	DWORD [-1080+EBP],8
  1128 00000C99 E9 FFFFFCC2                     	JMP	L27
  1129 00000C9E                                 L90:
  1130 00000C9E 83 BD FFFFFBC8 7F               	CMP	DWORD [-1080+EBP],127
  1131 00000CA5 0F 8F FFFFFCA5                  	JG	L23
  1132 00000CAB 6A 01                           	PUSH	1
  1133 00000CAD 8D 45 C4                        	LEA	EAX,DWORD [-60+EBP]
  1134 00000CB0 50                              	PUSH	EAX
  1135 00000CB1 6A 07                           	PUSH	7
  1136 00000CB3 6A 00                           	PUSH	0
  1137 00000CB5 6A 1C                           	PUSH	28
  1138 00000CB7 FF B5 FFFFFBC8                  	PUSH	DWORD [-1080+EBP]
  1139 00000CBD 57                              	PUSH	EDI
  1140 00000CBE C6 45 C5 00                     	MOV	BYTE [-59+EBP],0
  1141 00000CC2 E8 [00000000]                   	CALL	_putfonts8_asc_sht
  1142 00000CC7 83 C4 1C                        	ADD	ESP,28
  1143 00000CCA 83 85 FFFFFBC8 08               	ADD	DWORD [-1080+EBP],8
  1144 00000CD1 E9 FFFFFC7A                     	JMP	L23
  1145 00000CD6                                 L21:
  1146 00000CD6 8D 42 20                        	LEA	EAX,DWORD [32+EDX]
  1147 00000CD9 88 45 C4                        	MOV	BYTE [-60+EBP],AL
  1148 00000CDC E9 FFFFFC3F                     	JMP	L19
  1149 00000CE1                                 L79:
  1150 00000CE1 83 BD FFFFFBAC 00               	CMP	DWORD [-1108+EBP],0
  1151 00000CE8 0F 84 FFFFFC32                  	JE	L19
  1152 00000CEE EB E6                           	JMP	L21
  1153 00000CF0                                 L16:
  1154 00000CF0 8B 8D FFFFFBCC                  	MOV	ECX,DWORD [-1076+EBP]
  1155 00000CF6 8A 81 [FFFFFF80]                	MOV	AL,BYTE [_keytable1.1-256+ECX]
  1156 00000CFC E9 FFFFFBF5                     	JMP	L80
  1157 00000D01                                 L15:
  1158 00000D01 C6 45 C4 00                     	MOV	BYTE [-60+EBP],0
  1159 00000D05 E9 FFFFFBEF                     	JMP	L18
  1160 00000D0A                                 L83:
  1161 00000D0A FF B5 FFFFFBB4                  	PUSH	DWORD [-1100+EBP]
  1162 00000D10 E8 [00000000]                   	CALL	_task_sleep
  1163 00000D15 E8 [00000000]                   	CALL	_io_sti
  1164 00000D1A 58                              	POP	EAX
  1165 00000D1B E9 FFFFF7A7                     	JMP	L7
  1166 00000D20                                 L82:
  1167 00000D20 53                              	PUSH	EBX
  1168 00000D21 E8 [00000000]                   	CALL	_fifo32_get
  1169 00000D26 89 85 FFFFFBA4                  	MOV	DWORD [-1116+EBP],EAX
  1170 00000D2C E8 [00000000]                   	CALL	_wait_KBC_sendready
  1171 00000D31 FF B5 FFFFFBA4                  	PUSH	DWORD [-1116+EBP]
  1172 00000D37 6A 60                           	PUSH	96
  1173 00000D39 E8 [00000000]                   	CALL	_io_out8
  1174 00000D3E 83 C4 0C                        	ADD	ESP,12
  1175 00000D41 E9 FFFFF79C                     	JMP	L10
  1176 00000D46                                 	GLOBAL	_keywin_off
  1177 00000D46                                 _keywin_off:
  1178 00000D46 55                              	PUSH	EBP
  1179 00000D47 89 E5                           	MOV	EBP,ESP
  1180 00000D49 57                              	PUSH	EDI
  1181 00000D4A 56                              	PUSH	ESI
  1182 00000D4B 53                              	PUSH	EBX
  1183 00000D4C 8B 7D 10                        	MOV	EDI,DWORD [16+EBP]
  1184 00000D4F 8B 5D 08                        	MOV	EBX,DWORD [8+EBP]
  1185 00000D52 6A 00                           	PUSH	0
  1186 00000D54 53                              	PUSH	EBX
  1187 00000D55 8B 75 14                        	MOV	ESI,DWORD [20+EBP]
  1188 00000D58 E8 [00000000]                   	CALL	_change_wtitle8
  1189 00000D5D 3B 5D 0C                        	CMP	EBX,DWORD [12+EBP]
  1190 00000D60 58                              	POP	EAX
  1191 00000D61 5A                              	POP	EDX
  1192 00000D62 74 22                           	JE	L110
  1193 00000D64 F6 43 1C 20                     	TEST	BYTE [28+EBX],32
  1194 00000D68 75 0A                           	JNE	L111
  1195 00000D6A                                 L108:
  1196 00000D6A 8D 65 F4                        	LEA	ESP,DWORD [-12+EBP]
  1197 00000D6D 89 F8                           	MOV	EAX,EDI
  1198 00000D6F 5B                              	POP	EBX
  1199 00000D70 5E                              	POP	ESI
  1200 00000D71 5F                              	POP	EDI
  1201 00000D72 5D                              	POP	EBP
  1202 00000D73 C3                              	RET
  1203 00000D74                                 L111:
  1204 00000D74 6A 03                           	PUSH	3
  1205 00000D76 8B 43 24                        	MOV	EAX,DWORD [36+EBX]
  1206 00000D79 83 C0 10                        	ADD	EAX,16
  1207 00000D7C 50                              	PUSH	EAX
  1208 00000D7D E8 [00000000]                   	CALL	_fifo32_put
  1209 00000D82 5B                              	POP	EBX
  1210 00000D83 5E                              	POP	ESI
  1211 00000D84 EB E4                           	JMP	L108
  1212 00000D86                                 L110:
  1213 00000D86 6A 2B                           	PUSH	43
  1214 00000D88 8D 46 07                        	LEA	EAX,DWORD [7+ESI]
  1215 00000D8B 50                              	PUSH	EAX
  1216 00000D8C 83 CF FF                        	OR	EDI,-1
  1217 00000D8F 6A 1C                           	PUSH	28
  1218 00000D91 56                              	PUSH	ESI
  1219 00000D92 6A 07                           	PUSH	7
  1220 00000D94 FF 73 04                        	PUSH	DWORD [4+EBX]
  1221 00000D97 FF 33                           	PUSH	DWORD [EBX]
  1222 00000D99 E8 [00000000]                   	CALL	_boxfill8
  1223 00000D9E 83 C4 1C                        	ADD	ESP,28
  1224 00000DA1 EB C7                           	JMP	L108
  1225 00000DA3                                 	GLOBAL	_keywin_on
  1226 00000DA3                                 _keywin_on:
  1227 00000DA3 55                              	PUSH	EBP
  1228 00000DA4 89 E5                           	MOV	EBP,ESP
  1229 00000DA6 56                              	PUSH	ESI
  1230 00000DA7 53                              	PUSH	EBX
  1231 00000DA8 6A 01                           	PUSH	1
  1232 00000DAA 8B 5D 08                        	MOV	EBX,DWORD [8+EBP]
  1233 00000DAD 53                              	PUSH	EBX
  1234 00000DAE 8B 75 10                        	MOV	ESI,DWORD [16+EBP]
  1235 00000DB1 E8 [00000000]                   	CALL	_change_wtitle8
  1236 00000DB6 3B 5D 0C                        	CMP	EBX,DWORD [12+EBP]
  1237 00000DB9 58                              	POP	EAX
  1238 00000DBA 5A                              	POP	EDX
  1239 00000DBB 74 21                           	JE	L116
  1240 00000DBD F6 43 1C 20                     	TEST	BYTE [28+EBX],32
  1241 00000DC1 75 09                           	JNE	L117
  1242 00000DC3                                 L114:
  1243 00000DC3 8D 65 F8                        	LEA	ESP,DWORD [-8+EBP]
  1244 00000DC6 89 F0                           	MOV	EAX,ESI
  1245 00000DC8 5B                              	POP	EBX
  1246 00000DC9 5E                              	POP	ESI
  1247 00000DCA 5D                              	POP	EBP
  1248 00000DCB C3                              	RET
  1249 00000DCC                                 L117:
  1250 00000DCC 6A 02                           	PUSH	2
  1251 00000DCE 8B 43 24                        	MOV	EAX,DWORD [36+EBX]
  1252 00000DD1 83 C0 10                        	ADD	EAX,16
  1253 00000DD4 50                              	PUSH	EAX
  1254 00000DD5 E8 [00000000]                   	CALL	_fifo32_put
  1255 00000DDA 59                              	POP	ECX
  1256 00000DDB 5B                              	POP	EBX
  1257 00000DDC EB E5                           	JMP	L114
  1258 00000DDE                                 L116:
  1259 00000DDE 31 F6                           	XOR	ESI,ESI
  1260 00000DE0 EB E1                           	JMP	L114
